
senzor-kovanica.elf:     file format elf32-littlearm

Sections:
Idx Name          Size      VMA       LMA       File off  Algn
  0 .isr_vector   00000198  08000000  08000000  00010000  2**0
                  CONTENTS, ALLOC, LOAD, READONLY, DATA
  1 .text         00003498  08000198  08000198  00010198  2**3
                  CONTENTS, ALLOC, LOAD, READONLY, CODE
  2 .rodata       0000002c  08003630  08003630  00013630  2**2
                  CONTENTS, ALLOC, LOAD, READONLY, DATA
  3 .ARM.extab    00000000  0800365c  0800365c  0002003c  2**0
                  CONTENTS
  4 .ARM          00000008  0800365c  0800365c  0001365c  2**2
                  CONTENTS, ALLOC, LOAD, READONLY, DATA
  5 .preinit_array 00000000  08003664  08003664  0002003c  2**0
                  CONTENTS, ALLOC, LOAD, DATA
  6 .init_array   00000004  08003664  08003664  00013664  2**2
                  CONTENTS, ALLOC, LOAD, DATA
  7 .fini_array   00000004  08003668  08003668  00013668  2**2
                  CONTENTS, ALLOC, LOAD, DATA
  8 .data         0000003c  20000000  0800366c  00020000  2**2
                  CONTENTS, ALLOC, LOAD, DATA
  9 .bss          000003a0  20000040  080036a8  00020040  2**3
                  ALLOC
 10 ._user_heap_stack 00000600  200003e0  080036a8  000203e0  2**0
                  ALLOC
 11 .ARM.attributes 00000030  00000000  00000000  0002003c  2**0
                  CONTENTS, READONLY
 12 .debug_info   00003e63  00000000  00000000  0002006c  2**0
                  CONTENTS, READONLY, DEBUGGING, OCTETS
 13 .debug_abbrev 00000ef3  00000000  00000000  00023ecf  2**0
                  CONTENTS, READONLY, DEBUGGING, OCTETS
 14 .debug_aranges 00000af0  00000000  00000000  00024dc8  2**3
                  CONTENTS, READONLY, DEBUGGING, OCTETS
 15 .debug_ranges 000021e0  00000000  00000000  000258b8  2**3
                  CONTENTS, READONLY, DEBUGGING, OCTETS
 16 .debug_line   0000bdad  00000000  00000000  00027a98  2**0
                  CONTENTS, READONLY, DEBUGGING, OCTETS
 17 .debug_str    000029c9  00000000  00000000  00033845  2**0
                  CONTENTS, READONLY, DEBUGGING, OCTETS
 18 .comment      00000050  00000000  00000000  0003620e  2**0
                  CONTENTS, READONLY
 19 .debug_frame  00002a14  00000000  00000000  00036260  2**2
                  CONTENTS, READONLY, DEBUGGING, OCTETS

Disassembly of section .text:

08000198 <__do_global_dtors_aux>:
 8000198:	b510      	push	{r4, lr}
 800019a:	4c05      	ldr	r4, [pc, #20]	; (80001b0 <__do_global_dtors_aux+0x18>)
 800019c:	7823      	ldrb	r3, [r4, #0]
 800019e:	b933      	cbnz	r3, 80001ae <__do_global_dtors_aux+0x16>
 80001a0:	4b04      	ldr	r3, [pc, #16]	; (80001b4 <__do_global_dtors_aux+0x1c>)
 80001a2:	b113      	cbz	r3, 80001aa <__do_global_dtors_aux+0x12>
 80001a4:	4804      	ldr	r0, [pc, #16]	; (80001b8 <__do_global_dtors_aux+0x20>)
 80001a6:	f3af 8000 	nop.w
 80001aa:	2301      	movs	r3, #1
 80001ac:	7023      	strb	r3, [r4, #0]
 80001ae:	bd10      	pop	{r4, pc}
 80001b0:	20000040 	.word	0x20000040
 80001b4:	00000000 	.word	0x00000000
 80001b8:	08003618 	.word	0x08003618

080001bc <frame_dummy>:
 80001bc:	b508      	push	{r3, lr}
 80001be:	4b03      	ldr	r3, [pc, #12]	; (80001cc <frame_dummy+0x10>)
 80001c0:	b11b      	cbz	r3, 80001ca <frame_dummy+0xe>
 80001c2:	4903      	ldr	r1, [pc, #12]	; (80001d0 <frame_dummy+0x14>)
 80001c4:	4803      	ldr	r0, [pc, #12]	; (80001d4 <frame_dummy+0x18>)
 80001c6:	f3af 8000 	nop.w
 80001ca:	bd08      	pop	{r3, pc}
 80001cc:	00000000 	.word	0x00000000
 80001d0:	20000044 	.word	0x20000044
 80001d4:	08003618 	.word	0x08003618

080001d8 <__aeabi_drsub>:
 80001d8:	f081 4100 	eor.w	r1, r1, #2147483648	; 0x80000000
 80001dc:	e002      	b.n	80001e4 <__adddf3>
 80001de:	bf00      	nop

080001e0 <__aeabi_dsub>:
 80001e0:	f083 4300 	eor.w	r3, r3, #2147483648	; 0x80000000

080001e4 <__adddf3>:
 80001e4:	b530      	push	{r4, r5, lr}
 80001e6:	ea4f 0441 	mov.w	r4, r1, lsl #1
 80001ea:	ea4f 0543 	mov.w	r5, r3, lsl #1
 80001ee:	ea94 0f05 	teq	r4, r5
 80001f2:	bf08      	it	eq
 80001f4:	ea90 0f02 	teqeq	r0, r2
 80001f8:	bf1f      	itttt	ne
 80001fa:	ea54 0c00 	orrsne.w	ip, r4, r0
 80001fe:	ea55 0c02 	orrsne.w	ip, r5, r2
 8000202:	ea7f 5c64 	mvnsne.w	ip, r4, asr #21
 8000206:	ea7f 5c65 	mvnsne.w	ip, r5, asr #21
 800020a:	f000 80e2 	beq.w	80003d2 <__adddf3+0x1ee>
 800020e:	ea4f 5454 	mov.w	r4, r4, lsr #21
 8000212:	ebd4 5555 	rsbs	r5, r4, r5, lsr #21
 8000216:	bfb8      	it	lt
 8000218:	426d      	neglt	r5, r5
 800021a:	dd0c      	ble.n	8000236 <__adddf3+0x52>
 800021c:	442c      	add	r4, r5
 800021e:	ea80 0202 	eor.w	r2, r0, r2
 8000222:	ea81 0303 	eor.w	r3, r1, r3
 8000226:	ea82 0000 	eor.w	r0, r2, r0
 800022a:	ea83 0101 	eor.w	r1, r3, r1
 800022e:	ea80 0202 	eor.w	r2, r0, r2
 8000232:	ea81 0303 	eor.w	r3, r1, r3
 8000236:	2d36      	cmp	r5, #54	; 0x36
 8000238:	bf88      	it	hi
 800023a:	bd30      	pophi	{r4, r5, pc}
 800023c:	f011 4f00 	tst.w	r1, #2147483648	; 0x80000000
 8000240:	ea4f 3101 	mov.w	r1, r1, lsl #12
 8000244:	f44f 1c80 	mov.w	ip, #1048576	; 0x100000
 8000248:	ea4c 3111 	orr.w	r1, ip, r1, lsr #12
 800024c:	d002      	beq.n	8000254 <__adddf3+0x70>
 800024e:	4240      	negs	r0, r0
 8000250:	eb61 0141 	sbc.w	r1, r1, r1, lsl #1
 8000254:	f013 4f00 	tst.w	r3, #2147483648	; 0x80000000
 8000258:	ea4f 3303 	mov.w	r3, r3, lsl #12
 800025c:	ea4c 3313 	orr.w	r3, ip, r3, lsr #12
 8000260:	d002      	beq.n	8000268 <__adddf3+0x84>
 8000262:	4252      	negs	r2, r2
 8000264:	eb63 0343 	sbc.w	r3, r3, r3, lsl #1
 8000268:	ea94 0f05 	teq	r4, r5
 800026c:	f000 80a7 	beq.w	80003be <__adddf3+0x1da>
 8000270:	f1a4 0401 	sub.w	r4, r4, #1
 8000274:	f1d5 0e20 	rsbs	lr, r5, #32
 8000278:	db0d      	blt.n	8000296 <__adddf3+0xb2>
 800027a:	fa02 fc0e 	lsl.w	ip, r2, lr
 800027e:	fa22 f205 	lsr.w	r2, r2, r5
 8000282:	1880      	adds	r0, r0, r2
 8000284:	f141 0100 	adc.w	r1, r1, #0
 8000288:	fa03 f20e 	lsl.w	r2, r3, lr
 800028c:	1880      	adds	r0, r0, r2
 800028e:	fa43 f305 	asr.w	r3, r3, r5
 8000292:	4159      	adcs	r1, r3
 8000294:	e00e      	b.n	80002b4 <__adddf3+0xd0>
 8000296:	f1a5 0520 	sub.w	r5, r5, #32
 800029a:	f10e 0e20 	add.w	lr, lr, #32
 800029e:	2a01      	cmp	r2, #1
 80002a0:	fa03 fc0e 	lsl.w	ip, r3, lr
 80002a4:	bf28      	it	cs
 80002a6:	f04c 0c02 	orrcs.w	ip, ip, #2
 80002aa:	fa43 f305 	asr.w	r3, r3, r5
 80002ae:	18c0      	adds	r0, r0, r3
 80002b0:	eb51 71e3 	adcs.w	r1, r1, r3, asr #31
 80002b4:	f001 4500 	and.w	r5, r1, #2147483648	; 0x80000000
 80002b8:	d507      	bpl.n	80002ca <__adddf3+0xe6>
 80002ba:	f04f 0e00 	mov.w	lr, #0
 80002be:	f1dc 0c00 	rsbs	ip, ip, #0
 80002c2:	eb7e 0000 	sbcs.w	r0, lr, r0
 80002c6:	eb6e 0101 	sbc.w	r1, lr, r1
 80002ca:	f5b1 1f80 	cmp.w	r1, #1048576	; 0x100000
 80002ce:	d31b      	bcc.n	8000308 <__adddf3+0x124>
 80002d0:	f5b1 1f00 	cmp.w	r1, #2097152	; 0x200000
 80002d4:	d30c      	bcc.n	80002f0 <__adddf3+0x10c>
 80002d6:	0849      	lsrs	r1, r1, #1
 80002d8:	ea5f 0030 	movs.w	r0, r0, rrx
 80002dc:	ea4f 0c3c 	mov.w	ip, ip, rrx
 80002e0:	f104 0401 	add.w	r4, r4, #1
 80002e4:	ea4f 5244 	mov.w	r2, r4, lsl #21
 80002e8:	f512 0f80 	cmn.w	r2, #4194304	; 0x400000
 80002ec:	f080 809a 	bcs.w	8000424 <__adddf3+0x240>
 80002f0:	f1bc 4f00 	cmp.w	ip, #2147483648	; 0x80000000
 80002f4:	bf08      	it	eq
 80002f6:	ea5f 0c50 	movseq.w	ip, r0, lsr #1
 80002fa:	f150 0000 	adcs.w	r0, r0, #0
 80002fe:	eb41 5104 	adc.w	r1, r1, r4, lsl #20
 8000302:	ea41 0105 	orr.w	r1, r1, r5
 8000306:	bd30      	pop	{r4, r5, pc}
 8000308:	ea5f 0c4c 	movs.w	ip, ip, lsl #1
 800030c:	4140      	adcs	r0, r0
 800030e:	eb41 0101 	adc.w	r1, r1, r1
 8000312:	3c01      	subs	r4, #1
 8000314:	bf28      	it	cs
 8000316:	f5b1 1f80 	cmpcs.w	r1, #1048576	; 0x100000
 800031a:	d2e9      	bcs.n	80002f0 <__adddf3+0x10c>
 800031c:	f091 0f00 	teq	r1, #0
 8000320:	bf04      	itt	eq
 8000322:	4601      	moveq	r1, r0
 8000324:	2000      	moveq	r0, #0
 8000326:	fab1 f381 	clz	r3, r1
 800032a:	bf08      	it	eq
 800032c:	3320      	addeq	r3, #32
 800032e:	f1a3 030b 	sub.w	r3, r3, #11
 8000332:	f1b3 0220 	subs.w	r2, r3, #32
 8000336:	da0c      	bge.n	8000352 <__adddf3+0x16e>
 8000338:	320c      	adds	r2, #12
 800033a:	dd08      	ble.n	800034e <__adddf3+0x16a>
 800033c:	f102 0c14 	add.w	ip, r2, #20
 8000340:	f1c2 020c 	rsb	r2, r2, #12
 8000344:	fa01 f00c 	lsl.w	r0, r1, ip
 8000348:	fa21 f102 	lsr.w	r1, r1, r2
 800034c:	e00c      	b.n	8000368 <__adddf3+0x184>
 800034e:	f102 0214 	add.w	r2, r2, #20
 8000352:	bfd8      	it	le
 8000354:	f1c2 0c20 	rsble	ip, r2, #32
 8000358:	fa01 f102 	lsl.w	r1, r1, r2
 800035c:	fa20 fc0c 	lsr.w	ip, r0, ip
 8000360:	bfdc      	itt	le
 8000362:	ea41 010c 	orrle.w	r1, r1, ip
 8000366:	4090      	lslle	r0, r2
 8000368:	1ae4      	subs	r4, r4, r3
 800036a:	bfa2      	ittt	ge
 800036c:	eb01 5104 	addge.w	r1, r1, r4, lsl #20
 8000370:	4329      	orrge	r1, r5
 8000372:	bd30      	popge	{r4, r5, pc}
 8000374:	ea6f 0404 	mvn.w	r4, r4
 8000378:	3c1f      	subs	r4, #31
 800037a:	da1c      	bge.n	80003b6 <__adddf3+0x1d2>
 800037c:	340c      	adds	r4, #12
 800037e:	dc0e      	bgt.n	800039e <__adddf3+0x1ba>
 8000380:	f104 0414 	add.w	r4, r4, #20
 8000384:	f1c4 0220 	rsb	r2, r4, #32
 8000388:	fa20 f004 	lsr.w	r0, r0, r4
 800038c:	fa01 f302 	lsl.w	r3, r1, r2
 8000390:	ea40 0003 	orr.w	r0, r0, r3
 8000394:	fa21 f304 	lsr.w	r3, r1, r4
 8000398:	ea45 0103 	orr.w	r1, r5, r3
 800039c:	bd30      	pop	{r4, r5, pc}
 800039e:	f1c4 040c 	rsb	r4, r4, #12
 80003a2:	f1c4 0220 	rsb	r2, r4, #32
 80003a6:	fa20 f002 	lsr.w	r0, r0, r2
 80003aa:	fa01 f304 	lsl.w	r3, r1, r4
 80003ae:	ea40 0003 	orr.w	r0, r0, r3
 80003b2:	4629      	mov	r1, r5
 80003b4:	bd30      	pop	{r4, r5, pc}
 80003b6:	fa21 f004 	lsr.w	r0, r1, r4
 80003ba:	4629      	mov	r1, r5
 80003bc:	bd30      	pop	{r4, r5, pc}
 80003be:	f094 0f00 	teq	r4, #0
 80003c2:	f483 1380 	eor.w	r3, r3, #1048576	; 0x100000
 80003c6:	bf06      	itte	eq
 80003c8:	f481 1180 	eoreq.w	r1, r1, #1048576	; 0x100000
 80003cc:	3401      	addeq	r4, #1
 80003ce:	3d01      	subne	r5, #1
 80003d0:	e74e      	b.n	8000270 <__adddf3+0x8c>
 80003d2:	ea7f 5c64 	mvns.w	ip, r4, asr #21
 80003d6:	bf18      	it	ne
 80003d8:	ea7f 5c65 	mvnsne.w	ip, r5, asr #21
 80003dc:	d029      	beq.n	8000432 <__adddf3+0x24e>
 80003de:	ea94 0f05 	teq	r4, r5
 80003e2:	bf08      	it	eq
 80003e4:	ea90 0f02 	teqeq	r0, r2
 80003e8:	d005      	beq.n	80003f6 <__adddf3+0x212>
 80003ea:	ea54 0c00 	orrs.w	ip, r4, r0
 80003ee:	bf04      	itt	eq
 80003f0:	4619      	moveq	r1, r3
 80003f2:	4610      	moveq	r0, r2
 80003f4:	bd30      	pop	{r4, r5, pc}
 80003f6:	ea91 0f03 	teq	r1, r3
 80003fa:	bf1e      	ittt	ne
 80003fc:	2100      	movne	r1, #0
 80003fe:	2000      	movne	r0, #0
 8000400:	bd30      	popne	{r4, r5, pc}
 8000402:	ea5f 5c54 	movs.w	ip, r4, lsr #21
 8000406:	d105      	bne.n	8000414 <__adddf3+0x230>
 8000408:	0040      	lsls	r0, r0, #1
 800040a:	4149      	adcs	r1, r1
 800040c:	bf28      	it	cs
 800040e:	f041 4100 	orrcs.w	r1, r1, #2147483648	; 0x80000000
 8000412:	bd30      	pop	{r4, r5, pc}
 8000414:	f514 0480 	adds.w	r4, r4, #4194304	; 0x400000
 8000418:	bf3c      	itt	cc
 800041a:	f501 1180 	addcc.w	r1, r1, #1048576	; 0x100000
 800041e:	bd30      	popcc	{r4, r5, pc}
 8000420:	f001 4500 	and.w	r5, r1, #2147483648	; 0x80000000
 8000424:	f045 41fe 	orr.w	r1, r5, #2130706432	; 0x7f000000
 8000428:	f441 0170 	orr.w	r1, r1, #15728640	; 0xf00000
 800042c:	f04f 0000 	mov.w	r0, #0
 8000430:	bd30      	pop	{r4, r5, pc}
 8000432:	ea7f 5c64 	mvns.w	ip, r4, asr #21
 8000436:	bf1a      	itte	ne
 8000438:	4619      	movne	r1, r3
 800043a:	4610      	movne	r0, r2
 800043c:	ea7f 5c65 	mvnseq.w	ip, r5, asr #21
 8000440:	bf1c      	itt	ne
 8000442:	460b      	movne	r3, r1
 8000444:	4602      	movne	r2, r0
 8000446:	ea50 3401 	orrs.w	r4, r0, r1, lsl #12
 800044a:	bf06      	itte	eq
 800044c:	ea52 3503 	orrseq.w	r5, r2, r3, lsl #12
 8000450:	ea91 0f03 	teqeq	r1, r3
 8000454:	f441 2100 	orrne.w	r1, r1, #524288	; 0x80000
 8000458:	bd30      	pop	{r4, r5, pc}
 800045a:	bf00      	nop

0800045c <__aeabi_ui2d>:
 800045c:	f090 0f00 	teq	r0, #0
 8000460:	bf04      	itt	eq
 8000462:	2100      	moveq	r1, #0
 8000464:	4770      	bxeq	lr
 8000466:	b530      	push	{r4, r5, lr}
 8000468:	f44f 6480 	mov.w	r4, #1024	; 0x400
 800046c:	f104 0432 	add.w	r4, r4, #50	; 0x32
 8000470:	f04f 0500 	mov.w	r5, #0
 8000474:	f04f 0100 	mov.w	r1, #0
 8000478:	e750      	b.n	800031c <__adddf3+0x138>
 800047a:	bf00      	nop

0800047c <__aeabi_i2d>:
 800047c:	f090 0f00 	teq	r0, #0
 8000480:	bf04      	itt	eq
 8000482:	2100      	moveq	r1, #0
 8000484:	4770      	bxeq	lr
 8000486:	b530      	push	{r4, r5, lr}
 8000488:	f44f 6480 	mov.w	r4, #1024	; 0x400
 800048c:	f104 0432 	add.w	r4, r4, #50	; 0x32
 8000490:	f010 4500 	ands.w	r5, r0, #2147483648	; 0x80000000
 8000494:	bf48      	it	mi
 8000496:	4240      	negmi	r0, r0
 8000498:	f04f 0100 	mov.w	r1, #0
 800049c:	e73e      	b.n	800031c <__adddf3+0x138>
 800049e:	bf00      	nop

080004a0 <__aeabi_f2d>:
 80004a0:	0042      	lsls	r2, r0, #1
 80004a2:	ea4f 01e2 	mov.w	r1, r2, asr #3
 80004a6:	ea4f 0131 	mov.w	r1, r1, rrx
 80004aa:	ea4f 7002 	mov.w	r0, r2, lsl #28
 80004ae:	bf1f      	itttt	ne
 80004b0:	f012 437f 	andsne.w	r3, r2, #4278190080	; 0xff000000
 80004b4:	f093 4f7f 	teqne	r3, #4278190080	; 0xff000000
 80004b8:	f081 5160 	eorne.w	r1, r1, #939524096	; 0x38000000
 80004bc:	4770      	bxne	lr
 80004be:	f032 427f 	bics.w	r2, r2, #4278190080	; 0xff000000
 80004c2:	bf08      	it	eq
 80004c4:	4770      	bxeq	lr
 80004c6:	f093 4f7f 	teq	r3, #4278190080	; 0xff000000
 80004ca:	bf04      	itt	eq
 80004cc:	f441 2100 	orreq.w	r1, r1, #524288	; 0x80000
 80004d0:	4770      	bxeq	lr
 80004d2:	b530      	push	{r4, r5, lr}
 80004d4:	f44f 7460 	mov.w	r4, #896	; 0x380
 80004d8:	f001 4500 	and.w	r5, r1, #2147483648	; 0x80000000
 80004dc:	f021 4100 	bic.w	r1, r1, #2147483648	; 0x80000000
 80004e0:	e71c      	b.n	800031c <__adddf3+0x138>
 80004e2:	bf00      	nop

080004e4 <__aeabi_ul2d>:
 80004e4:	ea50 0201 	orrs.w	r2, r0, r1
 80004e8:	bf08      	it	eq
 80004ea:	4770      	bxeq	lr
 80004ec:	b530      	push	{r4, r5, lr}
 80004ee:	f04f 0500 	mov.w	r5, #0
 80004f2:	e00a      	b.n	800050a <__aeabi_l2d+0x16>

080004f4 <__aeabi_l2d>:
 80004f4:	ea50 0201 	orrs.w	r2, r0, r1
 80004f8:	bf08      	it	eq
 80004fa:	4770      	bxeq	lr
 80004fc:	b530      	push	{r4, r5, lr}
 80004fe:	f011 4500 	ands.w	r5, r1, #2147483648	; 0x80000000
 8000502:	d502      	bpl.n	800050a <__aeabi_l2d+0x16>
 8000504:	4240      	negs	r0, r0
 8000506:	eb61 0141 	sbc.w	r1, r1, r1, lsl #1
 800050a:	f44f 6480 	mov.w	r4, #1024	; 0x400
 800050e:	f104 0432 	add.w	r4, r4, #50	; 0x32
 8000512:	ea5f 5c91 	movs.w	ip, r1, lsr #22
 8000516:	f43f aed8 	beq.w	80002ca <__adddf3+0xe6>
 800051a:	f04f 0203 	mov.w	r2, #3
 800051e:	ea5f 0cdc 	movs.w	ip, ip, lsr #3
 8000522:	bf18      	it	ne
 8000524:	3203      	addne	r2, #3
 8000526:	ea5f 0cdc 	movs.w	ip, ip, lsr #3
 800052a:	bf18      	it	ne
 800052c:	3203      	addne	r2, #3
 800052e:	eb02 02dc 	add.w	r2, r2, ip, lsr #3
 8000532:	f1c2 0320 	rsb	r3, r2, #32
 8000536:	fa00 fc03 	lsl.w	ip, r0, r3
 800053a:	fa20 f002 	lsr.w	r0, r0, r2
 800053e:	fa01 fe03 	lsl.w	lr, r1, r3
 8000542:	ea40 000e 	orr.w	r0, r0, lr
 8000546:	fa21 f102 	lsr.w	r1, r1, r2
 800054a:	4414      	add	r4, r2
 800054c:	e6bd      	b.n	80002ca <__adddf3+0xe6>
 800054e:	bf00      	nop

08000550 <__gedf2>:
 8000550:	f04f 3cff 	mov.w	ip, #4294967295	; 0xffffffff
 8000554:	e006      	b.n	8000564 <__cmpdf2+0x4>
 8000556:	bf00      	nop

08000558 <__ledf2>:
 8000558:	f04f 0c01 	mov.w	ip, #1
 800055c:	e002      	b.n	8000564 <__cmpdf2+0x4>
 800055e:	bf00      	nop

08000560 <__cmpdf2>:
 8000560:	f04f 0c01 	mov.w	ip, #1
 8000564:	f84d cd04 	str.w	ip, [sp, #-4]!
 8000568:	ea4f 0c41 	mov.w	ip, r1, lsl #1
 800056c:	ea7f 5c6c 	mvns.w	ip, ip, asr #21
 8000570:	ea4f 0c43 	mov.w	ip, r3, lsl #1
 8000574:	bf18      	it	ne
 8000576:	ea7f 5c6c 	mvnsne.w	ip, ip, asr #21
 800057a:	d01b      	beq.n	80005b4 <__cmpdf2+0x54>
 800057c:	b001      	add	sp, #4
 800057e:	ea50 0c41 	orrs.w	ip, r0, r1, lsl #1
 8000582:	bf0c      	ite	eq
 8000584:	ea52 0c43 	orrseq.w	ip, r2, r3, lsl #1
 8000588:	ea91 0f03 	teqne	r1, r3
 800058c:	bf02      	ittt	eq
 800058e:	ea90 0f02 	teqeq	r0, r2
 8000592:	2000      	moveq	r0, #0
 8000594:	4770      	bxeq	lr
 8000596:	f110 0f00 	cmn.w	r0, #0
 800059a:	ea91 0f03 	teq	r1, r3
 800059e:	bf58      	it	pl
 80005a0:	4299      	cmppl	r1, r3
 80005a2:	bf08      	it	eq
 80005a4:	4290      	cmpeq	r0, r2
 80005a6:	bf2c      	ite	cs
 80005a8:	17d8      	asrcs	r0, r3, #31
 80005aa:	ea6f 70e3 	mvncc.w	r0, r3, asr #31
 80005ae:	f040 0001 	orr.w	r0, r0, #1
 80005b2:	4770      	bx	lr
 80005b4:	ea4f 0c41 	mov.w	ip, r1, lsl #1
 80005b8:	ea7f 5c6c 	mvns.w	ip, ip, asr #21
 80005bc:	d102      	bne.n	80005c4 <__cmpdf2+0x64>
 80005be:	ea50 3c01 	orrs.w	ip, r0, r1, lsl #12
 80005c2:	d107      	bne.n	80005d4 <__cmpdf2+0x74>
 80005c4:	ea4f 0c43 	mov.w	ip, r3, lsl #1
 80005c8:	ea7f 5c6c 	mvns.w	ip, ip, asr #21
 80005cc:	d1d6      	bne.n	800057c <__cmpdf2+0x1c>
 80005ce:	ea52 3c03 	orrs.w	ip, r2, r3, lsl #12
 80005d2:	d0d3      	beq.n	800057c <__cmpdf2+0x1c>
 80005d4:	f85d 0b04 	ldr.w	r0, [sp], #4
 80005d8:	4770      	bx	lr
 80005da:	bf00      	nop

080005dc <__aeabi_cdrcmple>:
 80005dc:	4684      	mov	ip, r0
 80005de:	4610      	mov	r0, r2
 80005e0:	4662      	mov	r2, ip
 80005e2:	468c      	mov	ip, r1
 80005e4:	4619      	mov	r1, r3
 80005e6:	4663      	mov	r3, ip
 80005e8:	e000      	b.n	80005ec <__aeabi_cdcmpeq>
 80005ea:	bf00      	nop

080005ec <__aeabi_cdcmpeq>:
 80005ec:	b501      	push	{r0, lr}
 80005ee:	f7ff ffb7 	bl	8000560 <__cmpdf2>
 80005f2:	2800      	cmp	r0, #0
 80005f4:	bf48      	it	mi
 80005f6:	f110 0f00 	cmnmi.w	r0, #0
 80005fa:	bd01      	pop	{r0, pc}

080005fc <__aeabi_dcmpeq>:
 80005fc:	f84d ed08 	str.w	lr, [sp, #-8]!
 8000600:	f7ff fff4 	bl	80005ec <__aeabi_cdcmpeq>
 8000604:	bf0c      	ite	eq
 8000606:	2001      	moveq	r0, #1
 8000608:	2000      	movne	r0, #0
 800060a:	f85d fb08 	ldr.w	pc, [sp], #8
 800060e:	bf00      	nop

08000610 <__aeabi_dcmplt>:
 8000610:	f84d ed08 	str.w	lr, [sp, #-8]!
 8000614:	f7ff ffea 	bl	80005ec <__aeabi_cdcmpeq>
 8000618:	bf34      	ite	cc
 800061a:	2001      	movcc	r0, #1
 800061c:	2000      	movcs	r0, #0
 800061e:	f85d fb08 	ldr.w	pc, [sp], #8
 8000622:	bf00      	nop

08000624 <__aeabi_dcmple>:
 8000624:	f84d ed08 	str.w	lr, [sp, #-8]!
 8000628:	f7ff ffe0 	bl	80005ec <__aeabi_cdcmpeq>
 800062c:	bf94      	ite	ls
 800062e:	2001      	movls	r0, #1
 8000630:	2000      	movhi	r0, #0
 8000632:	f85d fb08 	ldr.w	pc, [sp], #8
 8000636:	bf00      	nop

08000638 <__aeabi_dcmpge>:
 8000638:	f84d ed08 	str.w	lr, [sp, #-8]!
 800063c:	f7ff ffce 	bl	80005dc <__aeabi_cdrcmple>
 8000640:	bf94      	ite	ls
 8000642:	2001      	movls	r0, #1
 8000644:	2000      	movhi	r0, #0
 8000646:	f85d fb08 	ldr.w	pc, [sp], #8
 800064a:	bf00      	nop

0800064c <__aeabi_dcmpgt>:
 800064c:	f84d ed08 	str.w	lr, [sp, #-8]!
 8000650:	f7ff ffc4 	bl	80005dc <__aeabi_cdrcmple>
 8000654:	bf34      	ite	cc
 8000656:	2001      	movcc	r0, #1
 8000658:	2000      	movcs	r0, #0
 800065a:	f85d fb08 	ldr.w	pc, [sp], #8
 800065e:	bf00      	nop

08000660 <__aeabi_uldivmod>:
 8000660:	b953      	cbnz	r3, 8000678 <__aeabi_uldivmod+0x18>
 8000662:	b94a      	cbnz	r2, 8000678 <__aeabi_uldivmod+0x18>
 8000664:	2900      	cmp	r1, #0
 8000666:	bf08      	it	eq
 8000668:	2800      	cmpeq	r0, #0
 800066a:	bf1c      	itt	ne
 800066c:	f04f 31ff 	movne.w	r1, #4294967295	; 0xffffffff
 8000670:	f04f 30ff 	movne.w	r0, #4294967295	; 0xffffffff
 8000674:	f000 b974 	b.w	8000960 <__aeabi_idiv0>
 8000678:	f1ad 0c08 	sub.w	ip, sp, #8
 800067c:	e96d ce04 	strd	ip, lr, [sp, #-16]!
 8000680:	f000 f806 	bl	8000690 <__udivmoddi4>
 8000684:	f8dd e004 	ldr.w	lr, [sp, #4]
 8000688:	e9dd 2302 	ldrd	r2, r3, [sp, #8]
 800068c:	b004      	add	sp, #16
 800068e:	4770      	bx	lr

08000690 <__udivmoddi4>:
 8000690:	e92d 47f0 	stmdb	sp!, {r4, r5, r6, r7, r8, r9, sl, lr}
 8000694:	9d08      	ldr	r5, [sp, #32]
 8000696:	4604      	mov	r4, r0
 8000698:	468e      	mov	lr, r1
 800069a:	2b00      	cmp	r3, #0
 800069c:	d14d      	bne.n	800073a <__udivmoddi4+0xaa>
 800069e:	428a      	cmp	r2, r1
 80006a0:	4694      	mov	ip, r2
 80006a2:	d969      	bls.n	8000778 <__udivmoddi4+0xe8>
 80006a4:	fab2 f282 	clz	r2, r2
 80006a8:	b152      	cbz	r2, 80006c0 <__udivmoddi4+0x30>
 80006aa:	fa01 f302 	lsl.w	r3, r1, r2
 80006ae:	f1c2 0120 	rsb	r1, r2, #32
 80006b2:	fa20 f101 	lsr.w	r1, r0, r1
 80006b6:	fa0c fc02 	lsl.w	ip, ip, r2
 80006ba:	ea41 0e03 	orr.w	lr, r1, r3
 80006be:	4094      	lsls	r4, r2
 80006c0:	ea4f 481c 	mov.w	r8, ip, lsr #16
 80006c4:	0c21      	lsrs	r1, r4, #16
 80006c6:	fbbe f6f8 	udiv	r6, lr, r8
 80006ca:	fa1f f78c 	uxth.w	r7, ip
 80006ce:	fb08 e316 	mls	r3, r8, r6, lr
 80006d2:	ea41 4303 	orr.w	r3, r1, r3, lsl #16
 80006d6:	fb06 f107 	mul.w	r1, r6, r7
 80006da:	4299      	cmp	r1, r3
 80006dc:	d90a      	bls.n	80006f4 <__udivmoddi4+0x64>
 80006de:	eb1c 0303 	adds.w	r3, ip, r3
 80006e2:	f106 30ff 	add.w	r0, r6, #4294967295	; 0xffffffff
 80006e6:	f080 811f 	bcs.w	8000928 <__udivmoddi4+0x298>
 80006ea:	4299      	cmp	r1, r3
 80006ec:	f240 811c 	bls.w	8000928 <__udivmoddi4+0x298>
 80006f0:	3e02      	subs	r6, #2
 80006f2:	4463      	add	r3, ip
 80006f4:	1a5b      	subs	r3, r3, r1
 80006f6:	b2a4      	uxth	r4, r4
 80006f8:	fbb3 f0f8 	udiv	r0, r3, r8
 80006fc:	fb08 3310 	mls	r3, r8, r0, r3
 8000700:	ea44 4403 	orr.w	r4, r4, r3, lsl #16
 8000704:	fb00 f707 	mul.w	r7, r0, r7
 8000708:	42a7      	cmp	r7, r4
 800070a:	d90a      	bls.n	8000722 <__udivmoddi4+0x92>
 800070c:	eb1c 0404 	adds.w	r4, ip, r4
 8000710:	f100 33ff 	add.w	r3, r0, #4294967295	; 0xffffffff
 8000714:	f080 810a 	bcs.w	800092c <__udivmoddi4+0x29c>
 8000718:	42a7      	cmp	r7, r4
 800071a:	f240 8107 	bls.w	800092c <__udivmoddi4+0x29c>
 800071e:	4464      	add	r4, ip
 8000720:	3802      	subs	r0, #2
 8000722:	ea40 4006 	orr.w	r0, r0, r6, lsl #16
 8000726:	1be4      	subs	r4, r4, r7
 8000728:	2600      	movs	r6, #0
 800072a:	b11d      	cbz	r5, 8000734 <__udivmoddi4+0xa4>
 800072c:	40d4      	lsrs	r4, r2
 800072e:	2300      	movs	r3, #0
 8000730:	e9c5 4300 	strd	r4, r3, [r5]
 8000734:	4631      	mov	r1, r6
 8000736:	e8bd 87f0 	ldmia.w	sp!, {r4, r5, r6, r7, r8, r9, sl, pc}
 800073a:	428b      	cmp	r3, r1
 800073c:	d909      	bls.n	8000752 <__udivmoddi4+0xc2>
 800073e:	2d00      	cmp	r5, #0
 8000740:	f000 80ef 	beq.w	8000922 <__udivmoddi4+0x292>
 8000744:	2600      	movs	r6, #0
 8000746:	e9c5 0100 	strd	r0, r1, [r5]
 800074a:	4630      	mov	r0, r6
 800074c:	4631      	mov	r1, r6
 800074e:	e8bd 87f0 	ldmia.w	sp!, {r4, r5, r6, r7, r8, r9, sl, pc}
 8000752:	fab3 f683 	clz	r6, r3
 8000756:	2e00      	cmp	r6, #0
 8000758:	d14a      	bne.n	80007f0 <__udivmoddi4+0x160>
 800075a:	428b      	cmp	r3, r1
 800075c:	d302      	bcc.n	8000764 <__udivmoddi4+0xd4>
 800075e:	4282      	cmp	r2, r0
 8000760:	f200 80f9 	bhi.w	8000956 <__udivmoddi4+0x2c6>
 8000764:	1a84      	subs	r4, r0, r2
 8000766:	eb61 0303 	sbc.w	r3, r1, r3
 800076a:	2001      	movs	r0, #1
 800076c:	469e      	mov	lr, r3
 800076e:	2d00      	cmp	r5, #0
 8000770:	d0e0      	beq.n	8000734 <__udivmoddi4+0xa4>
 8000772:	e9c5 4e00 	strd	r4, lr, [r5]
 8000776:	e7dd      	b.n	8000734 <__udivmoddi4+0xa4>
 8000778:	b902      	cbnz	r2, 800077c <__udivmoddi4+0xec>
 800077a:	deff      	udf	#255	; 0xff
 800077c:	fab2 f282 	clz	r2, r2
 8000780:	2a00      	cmp	r2, #0
 8000782:	f040 8092 	bne.w	80008aa <__udivmoddi4+0x21a>
 8000786:	eba1 010c 	sub.w	r1, r1, ip
 800078a:	ea4f 471c 	mov.w	r7, ip, lsr #16
 800078e:	fa1f fe8c 	uxth.w	lr, ip
 8000792:	2601      	movs	r6, #1
 8000794:	0c20      	lsrs	r0, r4, #16
 8000796:	fbb1 f3f7 	udiv	r3, r1, r7
 800079a:	fb07 1113 	mls	r1, r7, r3, r1
 800079e:	ea40 4101 	orr.w	r1, r0, r1, lsl #16
 80007a2:	fb0e f003 	mul.w	r0, lr, r3
 80007a6:	4288      	cmp	r0, r1
 80007a8:	d908      	bls.n	80007bc <__udivmoddi4+0x12c>
 80007aa:	eb1c 0101 	adds.w	r1, ip, r1
 80007ae:	f103 38ff 	add.w	r8, r3, #4294967295	; 0xffffffff
 80007b2:	d202      	bcs.n	80007ba <__udivmoddi4+0x12a>
 80007b4:	4288      	cmp	r0, r1
 80007b6:	f200 80cb 	bhi.w	8000950 <__udivmoddi4+0x2c0>
 80007ba:	4643      	mov	r3, r8
 80007bc:	1a09      	subs	r1, r1, r0
 80007be:	b2a4      	uxth	r4, r4
 80007c0:	fbb1 f0f7 	udiv	r0, r1, r7
 80007c4:	fb07 1110 	mls	r1, r7, r0, r1
 80007c8:	ea44 4401 	orr.w	r4, r4, r1, lsl #16
 80007cc:	fb0e fe00 	mul.w	lr, lr, r0
 80007d0:	45a6      	cmp	lr, r4
 80007d2:	d908      	bls.n	80007e6 <__udivmoddi4+0x156>
 80007d4:	eb1c 0404 	adds.w	r4, ip, r4
 80007d8:	f100 31ff 	add.w	r1, r0, #4294967295	; 0xffffffff
 80007dc:	d202      	bcs.n	80007e4 <__udivmoddi4+0x154>
 80007de:	45a6      	cmp	lr, r4
 80007e0:	f200 80bb 	bhi.w	800095a <__udivmoddi4+0x2ca>
 80007e4:	4608      	mov	r0, r1
 80007e6:	eba4 040e 	sub.w	r4, r4, lr
 80007ea:	ea40 4003 	orr.w	r0, r0, r3, lsl #16
 80007ee:	e79c      	b.n	800072a <__udivmoddi4+0x9a>
 80007f0:	f1c6 0720 	rsb	r7, r6, #32
 80007f4:	40b3      	lsls	r3, r6
 80007f6:	fa22 fc07 	lsr.w	ip, r2, r7
 80007fa:	ea4c 0c03 	orr.w	ip, ip, r3
 80007fe:	fa20 f407 	lsr.w	r4, r0, r7
 8000802:	fa01 f306 	lsl.w	r3, r1, r6
 8000806:	431c      	orrs	r4, r3
 8000808:	40f9      	lsrs	r1, r7
 800080a:	ea4f 491c 	mov.w	r9, ip, lsr #16
 800080e:	fa00 f306 	lsl.w	r3, r0, r6
 8000812:	fbb1 f8f9 	udiv	r8, r1, r9
 8000816:	0c20      	lsrs	r0, r4, #16
 8000818:	fa1f fe8c 	uxth.w	lr, ip
 800081c:	fb09 1118 	mls	r1, r9, r8, r1
 8000820:	ea40 4101 	orr.w	r1, r0, r1, lsl #16
 8000824:	fb08 f00e 	mul.w	r0, r8, lr
 8000828:	4288      	cmp	r0, r1
 800082a:	fa02 f206 	lsl.w	r2, r2, r6
 800082e:	d90b      	bls.n	8000848 <__udivmoddi4+0x1b8>
 8000830:	eb1c 0101 	adds.w	r1, ip, r1
 8000834:	f108 3aff 	add.w	sl, r8, #4294967295	; 0xffffffff
 8000838:	f080 8088 	bcs.w	800094c <__udivmoddi4+0x2bc>
 800083c:	4288      	cmp	r0, r1
 800083e:	f240 8085 	bls.w	800094c <__udivmoddi4+0x2bc>
 8000842:	f1a8 0802 	sub.w	r8, r8, #2
 8000846:	4461      	add	r1, ip
 8000848:	1a09      	subs	r1, r1, r0
 800084a:	b2a4      	uxth	r4, r4
 800084c:	fbb1 f0f9 	udiv	r0, r1, r9
 8000850:	fb09 1110 	mls	r1, r9, r0, r1
 8000854:	ea44 4101 	orr.w	r1, r4, r1, lsl #16
 8000858:	fb00 fe0e 	mul.w	lr, r0, lr
 800085c:	458e      	cmp	lr, r1
 800085e:	d908      	bls.n	8000872 <__udivmoddi4+0x1e2>
 8000860:	eb1c 0101 	adds.w	r1, ip, r1
 8000864:	f100 34ff 	add.w	r4, r0, #4294967295	; 0xffffffff
 8000868:	d26c      	bcs.n	8000944 <__udivmoddi4+0x2b4>
 800086a:	458e      	cmp	lr, r1
 800086c:	d96a      	bls.n	8000944 <__udivmoddi4+0x2b4>
 800086e:	3802      	subs	r0, #2
 8000870:	4461      	add	r1, ip
 8000872:	ea40 4008 	orr.w	r0, r0, r8, lsl #16
 8000876:	fba0 9402 	umull	r9, r4, r0, r2
 800087a:	eba1 010e 	sub.w	r1, r1, lr
 800087e:	42a1      	cmp	r1, r4
 8000880:	46c8      	mov	r8, r9
 8000882:	46a6      	mov	lr, r4
 8000884:	d356      	bcc.n	8000934 <__udivmoddi4+0x2a4>
 8000886:	d053      	beq.n	8000930 <__udivmoddi4+0x2a0>
 8000888:	b15d      	cbz	r5, 80008a2 <__udivmoddi4+0x212>
 800088a:	ebb3 0208 	subs.w	r2, r3, r8
 800088e:	eb61 010e 	sbc.w	r1, r1, lr
 8000892:	fa01 f707 	lsl.w	r7, r1, r7
 8000896:	fa22 f306 	lsr.w	r3, r2, r6
 800089a:	40f1      	lsrs	r1, r6
 800089c:	431f      	orrs	r7, r3
 800089e:	e9c5 7100 	strd	r7, r1, [r5]
 80008a2:	2600      	movs	r6, #0
 80008a4:	4631      	mov	r1, r6
 80008a6:	e8bd 87f0 	ldmia.w	sp!, {r4, r5, r6, r7, r8, r9, sl, pc}
 80008aa:	f1c2 0320 	rsb	r3, r2, #32
 80008ae:	40d8      	lsrs	r0, r3
 80008b0:	fa0c fc02 	lsl.w	ip, ip, r2
 80008b4:	fa21 f303 	lsr.w	r3, r1, r3
 80008b8:	4091      	lsls	r1, r2
 80008ba:	4301      	orrs	r1, r0
 80008bc:	ea4f 471c 	mov.w	r7, ip, lsr #16
 80008c0:	fa1f fe8c 	uxth.w	lr, ip
 80008c4:	fbb3 f0f7 	udiv	r0, r3, r7
 80008c8:	fb07 3610 	mls	r6, r7, r0, r3
 80008cc:	0c0b      	lsrs	r3, r1, #16
 80008ce:	ea43 4306 	orr.w	r3, r3, r6, lsl #16
 80008d2:	fb00 f60e 	mul.w	r6, r0, lr
 80008d6:	429e      	cmp	r6, r3
 80008d8:	fa04 f402 	lsl.w	r4, r4, r2
 80008dc:	d908      	bls.n	80008f0 <__udivmoddi4+0x260>
 80008de:	eb1c 0303 	adds.w	r3, ip, r3
 80008e2:	f100 38ff 	add.w	r8, r0, #4294967295	; 0xffffffff
 80008e6:	d22f      	bcs.n	8000948 <__udivmoddi4+0x2b8>
 80008e8:	429e      	cmp	r6, r3
 80008ea:	d92d      	bls.n	8000948 <__udivmoddi4+0x2b8>
 80008ec:	3802      	subs	r0, #2
 80008ee:	4463      	add	r3, ip
 80008f0:	1b9b      	subs	r3, r3, r6
 80008f2:	b289      	uxth	r1, r1
 80008f4:	fbb3 f6f7 	udiv	r6, r3, r7
 80008f8:	fb07 3316 	mls	r3, r7, r6, r3
 80008fc:	ea41 4103 	orr.w	r1, r1, r3, lsl #16
 8000900:	fb06 f30e 	mul.w	r3, r6, lr
 8000904:	428b      	cmp	r3, r1
 8000906:	d908      	bls.n	800091a <__udivmoddi4+0x28a>
 8000908:	eb1c 0101 	adds.w	r1, ip, r1
 800090c:	f106 38ff 	add.w	r8, r6, #4294967295	; 0xffffffff
 8000910:	d216      	bcs.n	8000940 <__udivmoddi4+0x2b0>
 8000912:	428b      	cmp	r3, r1
 8000914:	d914      	bls.n	8000940 <__udivmoddi4+0x2b0>
 8000916:	3e02      	subs	r6, #2
 8000918:	4461      	add	r1, ip
 800091a:	1ac9      	subs	r1, r1, r3
 800091c:	ea46 4600 	orr.w	r6, r6, r0, lsl #16
 8000920:	e738      	b.n	8000794 <__udivmoddi4+0x104>
 8000922:	462e      	mov	r6, r5
 8000924:	4628      	mov	r0, r5
 8000926:	e705      	b.n	8000734 <__udivmoddi4+0xa4>
 8000928:	4606      	mov	r6, r0
 800092a:	e6e3      	b.n	80006f4 <__udivmoddi4+0x64>
 800092c:	4618      	mov	r0, r3
 800092e:	e6f8      	b.n	8000722 <__udivmoddi4+0x92>
 8000930:	454b      	cmp	r3, r9
 8000932:	d2a9      	bcs.n	8000888 <__udivmoddi4+0x1f8>
 8000934:	ebb9 0802 	subs.w	r8, r9, r2
 8000938:	eb64 0e0c 	sbc.w	lr, r4, ip
 800093c:	3801      	subs	r0, #1
 800093e:	e7a3      	b.n	8000888 <__udivmoddi4+0x1f8>
 8000940:	4646      	mov	r6, r8
 8000942:	e7ea      	b.n	800091a <__udivmoddi4+0x28a>
 8000944:	4620      	mov	r0, r4
 8000946:	e794      	b.n	8000872 <__udivmoddi4+0x1e2>
 8000948:	4640      	mov	r0, r8
 800094a:	e7d1      	b.n	80008f0 <__udivmoddi4+0x260>
 800094c:	46d0      	mov	r8, sl
 800094e:	e77b      	b.n	8000848 <__udivmoddi4+0x1b8>
 8000950:	3b02      	subs	r3, #2
 8000952:	4461      	add	r1, ip
 8000954:	e732      	b.n	80007bc <__udivmoddi4+0x12c>
 8000956:	4630      	mov	r0, r6
 8000958:	e709      	b.n	800076e <__udivmoddi4+0xde>
 800095a:	4464      	add	r4, ip
 800095c:	3802      	subs	r0, #2
 800095e:	e742      	b.n	80007e6 <__udivmoddi4+0x156>

08000960 <__aeabi_idiv0>:
 8000960:	4770      	bx	lr
 8000962:	bf00      	nop

08000964 <read_data>:
save_data(Address,data);
}

uint8_t read_data(uint32_t Address){

	__IO uint8_t read_data = *(__IO uint32_t *)Address;
 8000964:	6803      	ldr	r3, [r0, #0]
uint8_t read_data(uint32_t Address){
 8000966:	b082      	sub	sp, #8
	__IO uint8_t read_data = *(__IO uint32_t *)Address;
 8000968:	b2db      	uxtb	r3, r3
 800096a:	f88d 3007 	strb.w	r3, [sp, #7]
	return (uint8_t)read_data;
 800096e:	f89d 0007 	ldrb.w	r0, [sp, #7]
}
 8000972:	b002      	add	sp, #8
 8000974:	4770      	bx	lr
 8000976:	bf00      	nop

08000978 <Write_coin>:
	HAL_FLASH_Lock();


}

void Write_coin(uint8_t *data_p, int broj){
 8000978:	b570      	push	{r4, r5, r6, lr}
 800097a:	4e0f      	ldr	r6, [pc, #60]	; (80009b8 <Write_coin+0x40>)
int i;
uint32_t flash_address = FLASH_MEMORY_BEGIN + 1 + (broj * sizestruct);
 800097c:	eb01 0141 	add.w	r1, r1, r1, lsl #1
 8000980:	eb01 01c1 	add.w	r1, r1, r1, lsl #3
 8000984:	1a36      	subs	r6, r6, r0
void Write_coin(uint8_t *data_p, int broj){
 8000986:	b082      	sub	sp, #8
uint32_t flash_address = FLASH_MEMORY_BEGIN + 1 + (broj * sizestruct);
 8000988:	4604      	mov	r4, r0
 800098a:	f100 051b 	add.w	r5, r0, #27
 800098e:	440e      	add	r6, r1
 8000990:	19a1      	adds	r1, r4, r6

  for ( i = 0; i < sizestruct; i++, data_p++, flash_address++ )
	 save_data(flash_address, *data_p);
 8000992:	f814 2b01 	ldrb.w	r2, [r4], #1
 8000996:	9101      	str	r1, [sp, #4]
 8000998:	9200      	str	r2, [sp, #0]
    HAL_FLASH_Unlock();
 800099a:	f001 fd6d 	bl	8002478 <HAL_FLASH_Unlock>
	HAL_FLASH_Program(FLASH_TYPEPROGRAM_BYTE,Address,(uint8_t)data);
 800099e:	2300      	movs	r3, #0
 80009a0:	9a00      	ldr	r2, [sp, #0]
 80009a2:	9901      	ldr	r1, [sp, #4]
 80009a4:	4618      	mov	r0, r3
 80009a6:	f001 fcc5 	bl	8002334 <HAL_FLASH_Program>
	HAL_FLASH_Lock();
 80009aa:	f001 fd79 	bl	80024a0 <HAL_FLASH_Lock>
  for ( i = 0; i < sizestruct; i++, data_p++, flash_address++ )
 80009ae:	42ac      	cmp	r4, r5
 80009b0:	d1ee      	bne.n	8000990 <Write_coin+0x18>

}
 80009b2:	b002      	add	sp, #8
 80009b4:	bd70      	pop	{r4, r5, r6, pc}
 80009b6:	bf00      	nop
 80009b8:	08060001 	.word	0x08060001

080009bc <Read_coin>:

void Read_coin(uint8_t *data_p, int broj){
 80009bc:	4a0b      	ldr	r2, [pc, #44]	; (80009ec <Read_coin+0x30>)
	
int i;
uint32_t flash_address = FLASH_MEMORY_BEGIN + 1 + (broj * sizestruct);
 80009be:	eb01 0141 	add.w	r1, r1, r1, lsl #1
 80009c2:	eb01 0cc1 	add.w	ip, r1, r1, lsl #3
 80009c6:	1a12      	subs	r2, r2, r0
 80009c8:	4603      	mov	r3, r0
 80009ca:	f100 011b 	add.w	r1, r0, #27
void Read_coin(uint8_t *data_p, int broj){
 80009ce:	b082      	sub	sp, #8
 80009d0:	eb02 000c 	add.w	r0, r2, ip
	__IO uint8_t read_data = *(__IO uint32_t *)Address;
 80009d4:	581a      	ldr	r2, [r3, r0]
 80009d6:	b2d2      	uxtb	r2, r2
 80009d8:	f88d 2007 	strb.w	r2, [sp, #7]
	return (uint8_t)read_data;
 80009dc:	f89d 2007 	ldrb.w	r2, [sp, #7]

 for ( i = 0; i < sizestruct ; i++, data_p++, flash_address++ )
      *data_p = read_data(flash_address);
 80009e0:	f803 2b01 	strb.w	r2, [r3], #1
 for ( i = 0; i < sizestruct ; i++, data_p++, flash_address++ )
 80009e4:	428b      	cmp	r3, r1
 80009e6:	d1f5      	bne.n	80009d4 <Read_coin+0x18>

}
 80009e8:	b002      	add	sp, #8
 80009ea:	4770      	bx	lr
 80009ec:	08060001 	.word	0x08060001

080009f0 <lcd_init>:
    lcd_send_cmd (col);
}


void lcd_init (void)
{
 80009f0:	b570      	push	{r4, r5, r6, lr}
	HAL_I2C_Master_Transmit (&hi2c1, SLAVE_ADDRESS_LCD,(uint8_t *) data_t, 4, 100);
 80009f2:	4c39      	ldr	r4, [pc, #228]	; (8000ad8 <lcd_init+0xe8>)
	data_t[0] = data_u|0x0C;  //en=1, rs=0
 80009f4:	4e39      	ldr	r6, [pc, #228]	; (8000adc <lcd_init+0xec>)
{
 80009f6:	b084      	sub	sp, #16
	HAL_I2C_Master_Transmit (&hi2c1, SLAVE_ADDRESS_LCD,(uint8_t *) data_t, 4, 100);
 80009f8:	2564      	movs	r5, #100	; 0x64
	// 4 bit initialisation
	HAL_Delay(50);  // wait for >40ms
 80009fa:	2032      	movs	r0, #50	; 0x32
 80009fc:	f001 fa5c 	bl	8001eb8 <HAL_Delay>
	HAL_I2C_Master_Transmit (&hi2c1, SLAVE_ADDRESS_LCD,(uint8_t *) data_t, 4, 100);
 8000a00:	aa03      	add	r2, sp, #12
 8000a02:	2304      	movs	r3, #4
 8000a04:	214e      	movs	r1, #78	; 0x4e
 8000a06:	9500      	str	r5, [sp, #0]
 8000a08:	4620      	mov	r0, r4
	data_t[0] = data_u|0x0C;  //en=1, rs=0
 8000a0a:	9603      	str	r6, [sp, #12]
	HAL_I2C_Master_Transmit (&hi2c1, SLAVE_ADDRESS_LCD,(uint8_t *) data_t, 4, 100);
 8000a0c:	f001 ff1c 	bl	8002848 <HAL_I2C_Master_Transmit>
	lcd_send_cmd (0x30);
	HAL_Delay(5);  // wait for >4.1ms
 8000a10:	2005      	movs	r0, #5
 8000a12:	f001 fa51 	bl	8001eb8 <HAL_Delay>
	HAL_I2C_Master_Transmit (&hi2c1, SLAVE_ADDRESS_LCD,(uint8_t *) data_t, 4, 100);
 8000a16:	aa03      	add	r2, sp, #12
 8000a18:	2304      	movs	r3, #4
 8000a1a:	214e      	movs	r1, #78	; 0x4e
 8000a1c:	9500      	str	r5, [sp, #0]
 8000a1e:	4620      	mov	r0, r4
	data_t[0] = data_u|0x0C;  //en=1, rs=0
 8000a20:	9603      	str	r6, [sp, #12]
	HAL_I2C_Master_Transmit (&hi2c1, SLAVE_ADDRESS_LCD,(uint8_t *) data_t, 4, 100);
 8000a22:	f001 ff11 	bl	8002848 <HAL_I2C_Master_Transmit>
	lcd_send_cmd (0x30);
	HAL_Delay(1);  // wait for >100us
 8000a26:	2001      	movs	r0, #1
 8000a28:	f001 fa46 	bl	8001eb8 <HAL_Delay>
	HAL_I2C_Master_Transmit (&hi2c1, SLAVE_ADDRESS_LCD,(uint8_t *) data_t, 4, 100);
 8000a2c:	aa03      	add	r2, sp, #12
 8000a2e:	2304      	movs	r3, #4
 8000a30:	214e      	movs	r1, #78	; 0x4e
 8000a32:	9500      	str	r5, [sp, #0]
 8000a34:	4620      	mov	r0, r4
	data_t[0] = data_u|0x0C;  //en=1, rs=0
 8000a36:	9603      	str	r6, [sp, #12]
	HAL_I2C_Master_Transmit (&hi2c1, SLAVE_ADDRESS_LCD,(uint8_t *) data_t, 4, 100);
 8000a38:	f001 ff06 	bl	8002848 <HAL_I2C_Master_Transmit>
	lcd_send_cmd (0x30);
	HAL_Delay(10);
 8000a3c:	200a      	movs	r0, #10
 8000a3e:	f001 fa3b 	bl	8001eb8 <HAL_Delay>
	data_t[0] = data_u|0x0C;  //en=1, rs=0
 8000a42:	4927      	ldr	r1, [pc, #156]	; (8000ae0 <lcd_init+0xf0>)
 8000a44:	9103      	str	r1, [sp, #12]
	HAL_I2C_Master_Transmit (&hi2c1, SLAVE_ADDRESS_LCD,(uint8_t *) data_t, 4, 100);
 8000a46:	aa03      	add	r2, sp, #12
 8000a48:	2304      	movs	r3, #4
 8000a4a:	214e      	movs	r1, #78	; 0x4e
 8000a4c:	9500      	str	r5, [sp, #0]
 8000a4e:	4620      	mov	r0, r4
 8000a50:	f001 fefa 	bl	8002848 <HAL_I2C_Master_Transmit>
	lcd_send_cmd (0x20);  // 4bit mode
	HAL_Delay(10);
 8000a54:	200a      	movs	r0, #10
 8000a56:	f001 fa2f 	bl	8001eb8 <HAL_Delay>
	data_t[0] = data_u|0x0C;  //en=1, rs=0
 8000a5a:	4922      	ldr	r1, [pc, #136]	; (8000ae4 <lcd_init+0xf4>)
 8000a5c:	9103      	str	r1, [sp, #12]
	HAL_I2C_Master_Transmit (&hi2c1, SLAVE_ADDRESS_LCD,(uint8_t *) data_t, 4, 100);
 8000a5e:	aa03      	add	r2, sp, #12
 8000a60:	2304      	movs	r3, #4
 8000a62:	214e      	movs	r1, #78	; 0x4e
 8000a64:	9500      	str	r5, [sp, #0]
 8000a66:	4620      	mov	r0, r4
 8000a68:	f001 feee 	bl	8002848 <HAL_I2C_Master_Transmit>

  // display initialisation
	lcd_send_cmd (0x28); // Function set --> DL=0 (4 bit mode), N = 1 (2 line display) F = 0 (5x8 characters)
	HAL_Delay(1);
 8000a6c:	2001      	movs	r0, #1
 8000a6e:	f001 fa23 	bl	8001eb8 <HAL_Delay>
	data_t[0] = data_u|0x0C;  //en=1, rs=0
 8000a72:	491d      	ldr	r1, [pc, #116]	; (8000ae8 <lcd_init+0xf8>)
 8000a74:	9103      	str	r1, [sp, #12]
	HAL_I2C_Master_Transmit (&hi2c1, SLAVE_ADDRESS_LCD,(uint8_t *) data_t, 4, 100);
 8000a76:	aa03      	add	r2, sp, #12
 8000a78:	2304      	movs	r3, #4
 8000a7a:	214e      	movs	r1, #78	; 0x4e
 8000a7c:	9500      	str	r5, [sp, #0]
 8000a7e:	4620      	mov	r0, r4
 8000a80:	f001 fee2 	bl	8002848 <HAL_I2C_Master_Transmit>
	lcd_send_cmd (0x08); //Display on/off control --> D=0,C=0, B=0  ---> display off
	HAL_Delay(1);
 8000a84:	2001      	movs	r0, #1
 8000a86:	f001 fa17 	bl	8001eb8 <HAL_Delay>
	data_t[0] = data_u|0x0C;  //en=1, rs=0
 8000a8a:	4918      	ldr	r1, [pc, #96]	; (8000aec <lcd_init+0xfc>)
 8000a8c:	9103      	str	r1, [sp, #12]
	HAL_I2C_Master_Transmit (&hi2c1, SLAVE_ADDRESS_LCD,(uint8_t *) data_t, 4, 100);
 8000a8e:	aa03      	add	r2, sp, #12
 8000a90:	2304      	movs	r3, #4
 8000a92:	214e      	movs	r1, #78	; 0x4e
 8000a94:	9500      	str	r5, [sp, #0]
 8000a96:	4620      	mov	r0, r4
 8000a98:	f001 fed6 	bl	8002848 <HAL_I2C_Master_Transmit>
	lcd_send_cmd (0x01);  // clear display
	HAL_Delay(1);
 8000a9c:	2001      	movs	r0, #1
 8000a9e:	f001 fa0b 	bl	8001eb8 <HAL_Delay>
	HAL_Delay(1);
 8000aa2:	2001      	movs	r0, #1
 8000aa4:	f001 fa08 	bl	8001eb8 <HAL_Delay>
	data_t[0] = data_u|0x0C;  //en=1, rs=0
 8000aa8:	4911      	ldr	r1, [pc, #68]	; (8000af0 <lcd_init+0x100>)
 8000aaa:	9103      	str	r1, [sp, #12]
	HAL_I2C_Master_Transmit (&hi2c1, SLAVE_ADDRESS_LCD,(uint8_t *) data_t, 4, 100);
 8000aac:	aa03      	add	r2, sp, #12
 8000aae:	2304      	movs	r3, #4
 8000ab0:	214e      	movs	r1, #78	; 0x4e
 8000ab2:	9500      	str	r5, [sp, #0]
 8000ab4:	4620      	mov	r0, r4
 8000ab6:	f001 fec7 	bl	8002848 <HAL_I2C_Master_Transmit>
	lcd_send_cmd (0x06); //Entry mode set --> I/D = 1 (increment cursor) & S = 0 (no shift)
	HAL_Delay(1);
 8000aba:	2001      	movs	r0, #1
 8000abc:	f001 f9fc 	bl	8001eb8 <HAL_Delay>
	data_t[0] = data_u|0x0C;  //en=1, rs=0
 8000ac0:	4e0c      	ldr	r6, [pc, #48]	; (8000af4 <lcd_init+0x104>)
	HAL_I2C_Master_Transmit (&hi2c1, SLAVE_ADDRESS_LCD,(uint8_t *) data_t, 4, 100);
 8000ac2:	9500      	str	r5, [sp, #0]
 8000ac4:	2304      	movs	r3, #4
 8000ac6:	aa03      	add	r2, sp, #12
 8000ac8:	214e      	movs	r1, #78	; 0x4e
 8000aca:	4620      	mov	r0, r4
	data_t[0] = data_u|0x0C;  //en=1, rs=0
 8000acc:	9603      	str	r6, [sp, #12]
	HAL_I2C_Master_Transmit (&hi2c1, SLAVE_ADDRESS_LCD,(uint8_t *) data_t, 4, 100);
 8000ace:	f001 febb 	bl	8002848 <HAL_I2C_Master_Transmit>
	lcd_send_cmd (0x0C); //Display on/off control --> D = 1, C and B = 0. (Cursor and blink, last two bits)
}
 8000ad2:	b004      	add	sp, #16
 8000ad4:	bd70      	pop	{r4, r5, r6, pc}
 8000ad6:	bf00      	nop
 8000ad8:	20000148 	.word	0x20000148
 8000adc:	080c383c 	.word	0x080c383c
 8000ae0:	080c282c 	.word	0x080c282c
 8000ae4:	888c282c 	.word	0x888c282c
 8000ae8:	888c080c 	.word	0x888c080c
 8000aec:	181c080c 	.word	0x181c080c
 8000af0:	686c080c 	.word	0x686c080c
 8000af4:	c8cc080c 	.word	0xc8cc080c

08000af8 <display_total_init>:
void lcd_send_string (char *str)
{
	while (*str) lcd_send_data (*str++);
}

void display_total_init(void){
 8000af8:	e92d 41f0 	stmdb	sp!, {r4, r5, r6, r7, r8, lr}
 8000afc:	b084      	sub	sp, #16
	data_t[0] = data_u|0x0C;  //en=1, rs=0
 8000afe:	4928      	ldr	r1, [pc, #160]	; (8000ba0 <display_total_init+0xa8>)
 8000b00:	9103      	str	r1, [sp, #12]
	HAL_I2C_Master_Transmit (&hi2c1, SLAVE_ADDRESS_LCD,(uint8_t *) data_t, 4, 100);
 8000b02:	2564      	movs	r5, #100	; 0x64
 8000b04:	4827      	ldr	r0, [pc, #156]	; (8000ba4 <display_total_init+0xac>)
 8000b06:	9500      	str	r5, [sp, #0]
 8000b08:	2304      	movs	r3, #4
 8000b0a:	aa03      	add	r2, sp, #12
 8000b0c:	214e      	movs	r1, #78	; 0x4e
 8000b0e:	f001 fe9b 	bl	8002848 <HAL_I2C_Master_Transmit>
	data_t[0] = data_u|0x0D;  //en=1, rs=0
 8000b12:	4f25      	ldr	r7, [pc, #148]	; (8000ba8 <display_total_init+0xb0>)
	HAL_I2C_Master_Transmit (&hi2c1, SLAVE_ADDRESS_LCD,(uint8_t *) data_t, 4, 100);
 8000b14:	4e23      	ldr	r6, [pc, #140]	; (8000ba4 <display_total_init+0xac>)
 8000b16:	2446      	movs	r4, #70	; 0x46
 8000b18:	9500      	str	r5, [sp, #0]
 8000b1a:	2304      	movs	r3, #4
 8000b1c:	aa03      	add	r2, sp, #12
 8000b1e:	214e      	movs	r1, #78	; 0x4e
 8000b20:	4630      	mov	r0, r6
	data_t[0] = data_u|0x0D;  //en=1, rs=0
 8000b22:	9703      	str	r7, [sp, #12]
	HAL_I2C_Master_Transmit (&hi2c1, SLAVE_ADDRESS_LCD,(uint8_t *) data_t, 4, 100);
 8000b24:	f001 fe90 	bl	8002848 <HAL_I2C_Master_Transmit>
	for (int i=0; i<70; i++)
 8000b28:	3c01      	subs	r4, #1
 8000b2a:	d1f5      	bne.n	8000b18 <display_total_init+0x20>
	data_t[0] = data_u|0x0C;  //en=1, rs=0
 8000b2c:	491c      	ldr	r1, [pc, #112]	; (8000ba0 <display_total_init+0xa8>)
 8000b2e:	9103      	str	r1, [sp, #12]
	HAL_I2C_Master_Transmit (&hi2c1, SLAVE_ADDRESS_LCD,(uint8_t *) data_t, 4, 100);
 8000b30:	2304      	movs	r3, #4
 8000b32:	481c      	ldr	r0, [pc, #112]	; (8000ba4 <display_total_init+0xac>)
 8000b34:	9500      	str	r5, [sp, #0]
 8000b36:	aa03      	add	r2, sp, #12
 8000b38:	214e      	movs	r1, #78	; 0x4e
 8000b3a:	4e1c      	ldr	r6, [pc, #112]	; (8000bac <display_total_init+0xb4>)
	HAL_I2C_Master_Transmit (&hi2c1, SLAVE_ADDRESS_LCD,(uint8_t *) data_t, 4, 100);
 8000b3c:	f8df 8064 	ldr.w	r8, [pc, #100]	; 8000ba4 <display_total_init+0xac>
	HAL_I2C_Master_Transmit (&hi2c1, SLAVE_ADDRESS_LCD,(uint8_t *) data_t, 4, 100);
 8000b40:	f001 fe82 	bl	8002848 <HAL_I2C_Master_Transmit>
	HAL_I2C_Master_Transmit (&hi2c1, SLAVE_ADDRESS_LCD,(uint8_t *) data_t, 4, 100);
 8000b44:	2764      	movs	r7, #100	; 0x64
	while (*str) lcd_send_data (*str++);
 8000b46:	2354      	movs	r3, #84	; 0x54
	data_l = ((data<<4)&0xf0);
 8000b48:	011a      	lsls	r2, r3, #4
 8000b4a:	b2d2      	uxtb	r2, r2
	data_u = (data&0xf0);
 8000b4c:	f003 03f0 	and.w	r3, r3, #240	; 0xf0
	data_t[0] = data_u|0x0D;  //en=1, rs=0
 8000b50:	f043 0e0d 	orr.w	lr, r3, #13
	data_t[2] = data_l|0x0D;  //en=1, rs=0
 8000b54:	f042 0c0d 	orr.w	ip, r2, #13
	data_t[1] = data_u|0x09;  //en=0, rs=0
 8000b58:	f043 0409 	orr.w	r4, r3, #9
	data_t[3] = data_l|0x09;  //en=0, rs=0
 8000b5c:	f042 0509 	orr.w	r5, r2, #9
	HAL_I2C_Master_Transmit (&hi2c1, SLAVE_ADDRESS_LCD,(uint8_t *) data_t, 4, 100);
 8000b60:	2304      	movs	r3, #4
 8000b62:	9700      	str	r7, [sp, #0]
 8000b64:	aa03      	add	r2, sp, #12
 8000b66:	214e      	movs	r1, #78	; 0x4e
 8000b68:	4640      	mov	r0, r8
	data_t[0] = data_u|0x0D;  //en=1, rs=0
 8000b6a:	f88d e00c 	strb.w	lr, [sp, #12]
	data_t[1] = data_u|0x09;  //en=0, rs=0
 8000b6e:	f88d 400d 	strb.w	r4, [sp, #13]
	data_t[2] = data_l|0x0D;  //en=1, rs=0
 8000b72:	f88d c00e 	strb.w	ip, [sp, #14]
	data_t[3] = data_l|0x09;  //en=0, rs=0
 8000b76:	f88d 500f 	strb.w	r5, [sp, #15]
	HAL_I2C_Master_Transmit (&hi2c1, SLAVE_ADDRESS_LCD,(uint8_t *) data_t, 4, 100);
 8000b7a:	f001 fe65 	bl	8002848 <HAL_I2C_Master_Transmit>
	while (*str) lcd_send_data (*str++);
 8000b7e:	f816 3f01 	ldrb.w	r3, [r6, #1]!
 8000b82:	2b00      	cmp	r3, #0
 8000b84:	d1e0      	bne.n	8000b48 <display_total_init+0x50>
	data_t[0] = data_u|0x0C;  //en=1, rs=0
 8000b86:	4c0a      	ldr	r4, [pc, #40]	; (8000bb0 <display_total_init+0xb8>)
	HAL_I2C_Master_Transmit (&hi2c1, SLAVE_ADDRESS_LCD,(uint8_t *) data_t, 4, 100);
 8000b88:	9700      	str	r7, [sp, #0]
 8000b8a:	2304      	movs	r3, #4
 8000b8c:	aa03      	add	r2, sp, #12
 8000b8e:	214e      	movs	r1, #78	; 0x4e
 8000b90:	4804      	ldr	r0, [pc, #16]	; (8000ba4 <display_total_init+0xac>)
	data_t[0] = data_u|0x0C;  //en=1, rs=0
 8000b92:	9403      	str	r4, [sp, #12]
	HAL_I2C_Master_Transmit (&hi2c1, SLAVE_ADDRESS_LCD,(uint8_t *) data_t, 4, 100);
 8000b94:	f001 fe58 	bl	8002848 <HAL_I2C_Master_Transmit>
	lcd_clear();
	lcd_put_cur(0, 0);
	lcd_send_string("TOTAL:");
	lcd_put_cur(1, 7);
}
 8000b98:	b004      	add	sp, #16
 8000b9a:	e8bd 81f0 	ldmia.w	sp!, {r4, r5, r6, r7, r8, pc}
 8000b9e:	bf00      	nop
 8000ba0:	080c888c 	.word	0x080c888c
 8000ba4:	20000148 	.word	0x20000148
 8000ba8:	090d292d 	.word	0x090d292d
 8000bac:	08003630 	.word	0x08003630
 8000bb0:	787cc8cc 	.word	0x787cc8cc

08000bb4 <display_total_update>:
void display_total_update(float total){
 8000bb4:	e92d 43f0 	stmdb	sp!, {r4, r5, r6, r7, r8, r9, lr}
 8000bb8:	ed2d 8b02 	vpush	{d8}
 8000bbc:	b087      	sub	sp, #28
	data_t[0] = data_u|0x0C;  //en=1, rs=0
 8000bbe:	4b42      	ldr	r3, [pc, #264]	; (8000cc8 <display_total_update+0x114>)
 8000bc0:	9303      	str	r3, [sp, #12]
	HAL_I2C_Master_Transmit (&hi2c1, SLAVE_ADDRESS_LCD,(uint8_t *) data_t, 4, 100);
 8000bc2:	2564      	movs	r5, #100	; 0x64
 8000bc4:	aa03      	add	r2, sp, #12
 8000bc6:	214e      	movs	r1, #78	; 0x4e
 8000bc8:	2304      	movs	r3, #4
 8000bca:	4840      	ldr	r0, [pc, #256]	; (8000ccc <display_total_update+0x118>)
 8000bcc:	9500      	str	r5, [sp, #0]
void display_total_update(float total){
 8000bce:	eeb0 8a40 	vmov.f32	s16, s0
	HAL_I2C_Master_Transmit (&hi2c1, SLAVE_ADDRESS_LCD,(uint8_t *) data_t, 4, 100);
 8000bd2:	f001 fe39 	bl	8002848 <HAL_I2C_Master_Transmit>
	lcd_put_cur(0, 7);
	int tot_int = total*100;
 8000bd6:	ed9f 0a3e 	vldr	s0, [pc, #248]	; 8000cd0 <display_total_update+0x11c>

	char tot_s[] = "00.00 EUR";
	tot_s[0] = tot_int%10000/1000 +48;
 8000bda:	4b3e      	ldr	r3, [pc, #248]	; (8000cd4 <display_total_update+0x120>)
 8000bdc:	f8df 8100 	ldr.w	r8, [pc, #256]	; 8000ce0 <display_total_update+0x12c>
	tot_s[1] = tot_int%1000/100 +48;
 8000be0:	4e3d      	ldr	r6, [pc, #244]	; (8000cd8 <display_total_update+0x124>)
	tot_s[2] = '.';
	tot_s[3] = tot_int%100/10 +48;
 8000be2:	f8df e100 	ldr.w	lr, [pc, #256]	; 8000ce4 <display_total_update+0x130>
	char tot_s[] = "00.00 EUR";
 8000be6:	493d      	ldr	r1, [pc, #244]	; (8000cdc <display_total_update+0x128>)
	int tot_int = total*100;
 8000be8:	ee28 0a00 	vmul.f32	s0, s16, s0
	tot_s[0] = tot_int%10000/1000 +48;
 8000bec:	f242 7c10 	movw	ip, #10000	; 0x2710
	int tot_int = total*100;
 8000bf0:	eefd 7ac0 	vcvt.s32.f32	s15, s0
	char tot_s[] = "00.00 EUR";
 8000bf4:	af03      	add	r7, sp, #12
	int tot_int = total*100;
 8000bf6:	ee17 2a90 	vmov	r2, s15
	tot_s[0] = tot_int%10000/1000 +48;
 8000bfa:	fb83 0302 	smull	r0, r3, r3, r2
 8000bfe:	17d0      	asrs	r0, r2, #31
 8000c00:	ebc0 3323 	rsb	r3, r0, r3, asr #12
 8000c04:	fb0c 2313 	mls	r3, ip, r3, r2
	tot_s[1] = tot_int%1000/100 +48;
 8000c08:	fb88 9c02 	smull	r9, ip, r8, r2
	tot_s[0] = tot_int%10000/1000 +48;
 8000c0c:	fb88 9803 	smull	r9, r8, r8, r3
 8000c10:	17db      	asrs	r3, r3, #31
 8000c12:	ebc3 13a8 	rsb	r3, r3, r8, asr #6
	tot_s[1] = tot_int%1000/100 +48;
 8000c16:	ebc0 1cac 	rsb	ip, r0, ip, asr #6
	tot_s[3] = tot_int%100/10 +48;
 8000c1a:	fb86 8902 	smull	r8, r9, r6, r2
	tot_s[1] = tot_int%1000/100 +48;
 8000c1e:	f44f 787a 	mov.w	r8, #1000	; 0x3e8
 8000c22:	fb08 2c1c 	mls	ip, r8, ip, r2
 8000c26:	fb86 680c 	smull	r6, r8, r6, ip
 8000c2a:	ea4f 7cec 	mov.w	ip, ip, asr #31
 8000c2e:	ebcc 1868 	rsb	r8, ip, r8, asr #5
	tot_s[4] = tot_int%10 +48;
 8000c32:	fb8e 6c02 	smull	r6, ip, lr, r2
	tot_s[3] = tot_int%100/10 +48;
 8000c36:	ebc0 1969 	rsb	r9, r0, r9, asr #5
	tot_s[4] = tot_int%10 +48;
 8000c3a:	ebc0 00ac 	rsb	r0, r0, ip, asr #2
 8000c3e:	eb00 0080 	add.w	r0, r0, r0, lsl #2
	tot_s[3] = tot_int%100/10 +48;
 8000c42:	fb05 2919 	mls	r9, r5, r9, r2
	tot_s[4] = tot_int%10 +48;
 8000c46:	eba2 0240 	sub.w	r2, r2, r0, lsl #1
 8000c4a:	f102 0c30 	add.w	ip, r2, #48	; 0x30
	char tot_s[] = "00.00 EUR";
 8000c4e:	c907      	ldmia	r1, {r0, r1, r2}
	tot_s[3] = tot_int%100/10 +48;
 8000c50:	fb8e 6e09 	smull	r6, lr, lr, r9
	tot_s[4] = tot_int%10 +48;
 8000c54:	463c      	mov	r4, r7
	tot_s[3] = tot_int%100/10 +48;
 8000c56:	ea4f 79e9 	mov.w	r9, r9, asr #31
	char tot_s[] = "00.00 EUR";
 8000c5a:	c703      	stmia	r7!, {r0, r1}
	tot_s[0] = tot_int%10000/1000 +48;
 8000c5c:	3330      	adds	r3, #48	; 0x30
	tot_s[3] = tot_int%100/10 +48;
 8000c5e:	ebc9 0eae 	rsb	lr, r9, lr, asr #2
	tot_s[0] = tot_int%10000/1000 +48;
 8000c62:	b2db      	uxtb	r3, r3
	tot_s[1] = tot_int%1000/100 +48;
 8000c64:	f108 0830 	add.w	r8, r8, #48	; 0x30
	tot_s[3] = tot_int%100/10 +48;
 8000c68:	f10e 0e30 	add.w	lr, lr, #48	; 0x30
	HAL_I2C_Master_Transmit (&hi2c1, SLAVE_ADDRESS_LCD,(uint8_t *) data_t, 4, 100);
 8000c6c:	4e17      	ldr	r6, [pc, #92]	; (8000ccc <display_total_update+0x118>)
	char tot_s[] = "00.00 EUR";
 8000c6e:	803a      	strh	r2, [r7, #0]
	tot_s[1] = tot_int%1000/100 +48;
 8000c70:	f88d 800d 	strb.w	r8, [sp, #13]
	tot_s[3] = tot_int%100/10 +48;
 8000c74:	f88d e00f 	strb.w	lr, [sp, #15]
	tot_s[4] = tot_int%10 +48;
 8000c78:	f88d c010 	strb.w	ip, [sp, #16]
	tot_s[0] = tot_int%10000/1000 +48;
 8000c7c:	f88d 300c 	strb.w	r3, [sp, #12]
	data_l = ((data<<4)&0xf0);
 8000c80:	011a      	lsls	r2, r3, #4
 8000c82:	b2d2      	uxtb	r2, r2
	data_u = (data&0xf0);
 8000c84:	f003 03f0 	and.w	r3, r3, #240	; 0xf0
	data_t[1] = data_u|0x09;  //en=0, rs=0
 8000c88:	f043 0e09 	orr.w	lr, r3, #9
	data_t[3] = data_l|0x09;  //en=0, rs=0
 8000c8c:	f042 0c09 	orr.w	ip, r2, #9
	data_t[0] = data_u|0x0D;  //en=1, rs=0
 8000c90:	f043 080d 	orr.w	r8, r3, #13
	data_t[2] = data_l|0x0D;  //en=1, rs=0
 8000c94:	f042 070d 	orr.w	r7, r2, #13
	HAL_I2C_Master_Transmit (&hi2c1, SLAVE_ADDRESS_LCD,(uint8_t *) data_t, 4, 100);
 8000c98:	2304      	movs	r3, #4
 8000c9a:	9500      	str	r5, [sp, #0]
 8000c9c:	aa02      	add	r2, sp, #8
 8000c9e:	214e      	movs	r1, #78	; 0x4e
 8000ca0:	4630      	mov	r0, r6
	data_t[0] = data_u|0x0D;  //en=1, rs=0
 8000ca2:	f88d 8008 	strb.w	r8, [sp, #8]
	data_t[1] = data_u|0x09;  //en=0, rs=0
 8000ca6:	f88d e009 	strb.w	lr, [sp, #9]
	data_t[2] = data_l|0x0D;  //en=1, rs=0
 8000caa:	f88d 700a 	strb.w	r7, [sp, #10]
	data_t[3] = data_l|0x09;  //en=0, rs=0
 8000cae:	f88d c00b 	strb.w	ip, [sp, #11]
	HAL_I2C_Master_Transmit (&hi2c1, SLAVE_ADDRESS_LCD,(uint8_t *) data_t, 4, 100);
 8000cb2:	f001 fdc9 	bl	8002848 <HAL_I2C_Master_Transmit>
	while (*str) lcd_send_data (*str++);
 8000cb6:	f814 3f01 	ldrb.w	r3, [r4, #1]!
 8000cba:	2b00      	cmp	r3, #0
 8000cbc:	d1e0      	bne.n	8000c80 <display_total_update+0xcc>

	lcd_send_string(tot_s);
}
 8000cbe:	b007      	add	sp, #28
 8000cc0:	ecbd 8b02 	vpop	{d8}
 8000cc4:	e8bd 83f0 	ldmia.w	sp!, {r4, r5, r6, r7, r8, r9, pc}
 8000cc8:	787c888c 	.word	0x787c888c
 8000ccc:	20000148 	.word	0x20000148
 8000cd0:	42c80000 	.word	0x42c80000
 8000cd4:	68db8bad 	.word	0x68db8bad
 8000cd8:	51eb851f 	.word	0x51eb851f
 8000cdc:	08003638 	.word	0x08003638
 8000ce0:	10624dd3 	.word	0x10624dd3
 8000ce4:	66666667 	.word	0x66666667

08000ce8 <SystemClock_Config>:
/**
  * @brief System Clock Configuration
  * @retval None
  */
void SystemClock_Config(void)
{
 8000ce8:	b510      	push	{r4, lr}
  RCC_OscInitTypeDef RCC_OscInitStruct = {0};
 8000cea:	2300      	movs	r3, #0
{
 8000cec:	b094      	sub	sp, #80	; 0x50
  RCC_OscInitTypeDef RCC_OscInitStruct = {0};
 8000cee:	e9cd 330a 	strd	r3, r3, [sp, #40]	; 0x28
 8000cf2:	e9cd 330c 	strd	r3, r3, [sp, #48]	; 0x30
  RCC_ClkInitTypeDef RCC_ClkInitStruct = {0};
 8000cf6:	e9cd 3302 	strd	r3, r3, [sp, #8]
 8000cfa:	e9cd 3304 	strd	r3, r3, [sp, #16]

  /** Configure the main internal regulator output voltage
  */
  __HAL_RCC_PWR_CLK_ENABLE();
 8000cfe:	4924      	ldr	r1, [pc, #144]	; (8000d90 <SystemClock_Config+0xa8>)
 8000d00:	9300      	str	r3, [sp, #0]
  RCC_ClkInitTypeDef RCC_ClkInitStruct = {0};
 8000d02:	9306      	str	r3, [sp, #24]
  __HAL_RCC_PWR_CLK_ENABLE();
 8000d04:	6c08      	ldr	r0, [r1, #64]	; 0x40
  __HAL_PWR_VOLTAGESCALING_CONFIG(PWR_REGULATOR_VOLTAGE_SCALE1);
 8000d06:	4a23      	ldr	r2, [pc, #140]	; (8000d94 <SystemClock_Config+0xac>)
  __HAL_RCC_PWR_CLK_ENABLE();
 8000d08:	f040 5080 	orr.w	r0, r0, #268435456	; 0x10000000
 8000d0c:	6408      	str	r0, [r1, #64]	; 0x40
 8000d0e:	6c09      	ldr	r1, [r1, #64]	; 0x40
 8000d10:	f001 5180 	and.w	r1, r1, #268435456	; 0x10000000
 8000d14:	9100      	str	r1, [sp, #0]
 8000d16:	9900      	ldr	r1, [sp, #0]
  __HAL_PWR_VOLTAGESCALING_CONFIG(PWR_REGULATOR_VOLTAGE_SCALE1);
 8000d18:	9301      	str	r3, [sp, #4]
 8000d1a:	6811      	ldr	r1, [r2, #0]
 8000d1c:	f441 4140 	orr.w	r1, r1, #49152	; 0xc000
 8000d20:	6011      	str	r1, [r2, #0]
 8000d22:	6812      	ldr	r2, [r2, #0]

  /** Initializes the RCC Oscillators according to the specified parameters
  * in the RCC_OscInitTypeDef structure.
  */
  RCC_OscInitStruct.OscillatorType = RCC_OSCILLATORTYPE_HSE;
 8000d24:	ed9f 7b16 	vldr	d7, [pc, #88]	; 8000d80 <SystemClock_Config+0x98>
  __HAL_PWR_VOLTAGESCALING_CONFIG(PWR_REGULATOR_VOLTAGE_SCALE1);
 8000d28:	f402 4240 	and.w	r2, r2, #49152	; 0xc000
  RCC_OscInitStruct.HSEState = RCC_HSE_ON;
  RCC_OscInitStruct.PLL.PLLState = RCC_PLL_ON;
 8000d2c:	2002      	movs	r0, #2
  RCC_OscInitStruct.PLL.PLLSource = RCC_PLLSOURCE_HSE;
 8000d2e:	f44f 0180 	mov.w	r1, #4194304	; 0x400000
  RCC_OscInitStruct.PLL.PLLM = 4;
 8000d32:	2304      	movs	r3, #4
  __HAL_PWR_VOLTAGESCALING_CONFIG(PWR_REGULATOR_VOLTAGE_SCALE1);
 8000d34:	9201      	str	r2, [sp, #4]
  RCC_OscInitStruct.PLL.PLLSource = RCC_PLLSOURCE_HSE;
 8000d36:	e9cd 010e 	strd	r0, r1, [sp, #56]	; 0x38
  RCC_OscInitStruct.PLL.PLLN = 192;
 8000d3a:	22c0      	movs	r2, #192	; 0xc0
  RCC_OscInitStruct.PLL.PLLP = RCC_PLLP_DIV4;
  RCC_OscInitStruct.PLL.PLLQ = 4;
  if (HAL_RCC_OscConfig(&RCC_OscInitStruct) != HAL_OK)
 8000d3c:	a808      	add	r0, sp, #32
  RCC_OscInitStruct.OscillatorType = RCC_OSCILLATORTYPE_HSE;
 8000d3e:	ed8d 7b08 	vstr	d7, [sp, #32]
  RCC_OscInitStruct.PLL.PLLN = 192;
 8000d42:	e9cd 3210 	strd	r3, r2, [sp, #64]	; 0x40
  RCC_OscInitStruct.PLL.PLLQ = 4;
 8000d46:	e9cd 3312 	strd	r3, r3, [sp, #72]	; 0x48
  __HAL_PWR_VOLTAGESCALING_CONFIG(PWR_REGULATOR_VOLTAGE_SCALE1);
 8000d4a:	9c01      	ldr	r4, [sp, #4]
  if (HAL_RCC_OscConfig(&RCC_OscInitStruct) != HAL_OK)
 8000d4c:	f001 ff0e 	bl	8002b6c <HAL_RCC_OscConfig>
 8000d50:	b108      	cbz	r0, 8000d56 <SystemClock_Config+0x6e>
  \details Disables IRQ interrupts by setting the I-bit in the CPSR.
           Can only be executed in Privileged modes.
 */
__STATIC_FORCEINLINE void __disable_irq(void)
{
  __ASM volatile ("cpsid i" : : : "memory");
 8000d52:	b672      	cpsid	i
 8000d54:	e7fe      	b.n	8000d54 <SystemClock_Config+0x6c>
    Error_Handler();
  }

  /** Initializes the CPU, AHB and APB buses clocks
  */
  RCC_ClkInitStruct.ClockType = RCC_CLOCKTYPE_HCLK|RCC_CLOCKTYPE_SYSCLK
 8000d56:	ed9f 7b0c 	vldr	d7, [pc, #48]	; 8000d88 <SystemClock_Config+0xa0>
 8000d5a:	f44f 53e0 	mov.w	r3, #7168	; 0x1c00
 8000d5e:	2200      	movs	r2, #0
 8000d60:	e9cd 2304 	strd	r2, r3, [sp, #16]
  RCC_ClkInitStruct.SYSCLKSource = RCC_SYSCLKSOURCE_PLLCLK;
  RCC_ClkInitStruct.AHBCLKDivider = RCC_SYSCLK_DIV1;
  RCC_ClkInitStruct.APB1CLKDivider = RCC_HCLK_DIV16;
  RCC_ClkInitStruct.APB2CLKDivider = RCC_HCLK_DIV2;

  if (HAL_RCC_ClockConfig(&RCC_ClkInitStruct, FLASH_LATENCY_3) != HAL_OK)
 8000d64:	a802      	add	r0, sp, #8
  RCC_ClkInitStruct.APB2CLKDivider = RCC_HCLK_DIV2;
 8000d66:	f44f 5380 	mov.w	r3, #4096	; 0x1000
  if (HAL_RCC_ClockConfig(&RCC_ClkInitStruct, FLASH_LATENCY_3) != HAL_OK)
 8000d6a:	2103      	movs	r1, #3
  RCC_ClkInitStruct.ClockType = RCC_CLOCKTYPE_HCLK|RCC_CLOCKTYPE_SYSCLK
 8000d6c:	ed8d 7b02 	vstr	d7, [sp, #8]
  RCC_ClkInitStruct.APB2CLKDivider = RCC_HCLK_DIV2;
 8000d70:	9306      	str	r3, [sp, #24]
  if (HAL_RCC_ClockConfig(&RCC_ClkInitStruct, FLASH_LATENCY_3) != HAL_OK)
 8000d72:	f002 f913 	bl	8002f9c <HAL_RCC_ClockConfig>
 8000d76:	b108      	cbz	r0, 8000d7c <SystemClock_Config+0x94>
 8000d78:	b672      	cpsid	i
 8000d7a:	e7fe      	b.n	8000d7a <SystemClock_Config+0x92>
  {
    Error_Handler();
  }
}
 8000d7c:	b014      	add	sp, #80	; 0x50
 8000d7e:	bd10      	pop	{r4, pc}
 8000d80:	00000001 	.word	0x00000001
 8000d84:	00010000 	.word	0x00010000
 8000d88:	0000000f 	.word	0x0000000f
 8000d8c:	00000002 	.word	0x00000002
 8000d90:	40023800 	.word	0x40023800
 8000d94:	40007000 	.word	0x40007000

08000d98 <main>:
{
 8000d98:	e92d 4ff0 	stmdb	sp!, {r4, r5, r6, r7, r8, r9, sl, fp, lr}
 8000d9c:	ed2d 8b0a 	vpush	{d8-d12}
 8000da0:	2400      	movs	r4, #0
 8000da2:	b097      	sub	sp, #92	; 0x5c
  HAL_Init();
 8000da4:	f001 f85c 	bl	8001e60 <HAL_Init>
  SystemClock_Config();
 8000da8:	f7ff ff9e 	bl	8000ce8 <SystemClock_Config>
  * @param None
  * @retval None
  */
static void MX_GPIO_Init(void)
{
  GPIO_InitTypeDef GPIO_InitStruct = {0};
 8000dac:	e9cd 4410 	strd	r4, r4, [sp, #64]	; 0x40
 8000db0:	e9cd 4412 	strd	r4, r4, [sp, #72]	; 0x48
/* USER CODE BEGIN MX_GPIO_Init_1 */
/* USER CODE END MX_GPIO_Init_1 */

  /* GPIO Ports Clock Enable */
  __HAL_RCC_GPIOE_CLK_ENABLE();
 8000db4:	4bad      	ldr	r3, [pc, #692]	; (800106c <main+0x2d4>)
 8000db6:	9409      	str	r4, [sp, #36]	; 0x24
  GPIO_InitTypeDef GPIO_InitStruct = {0};
 8000db8:	9414      	str	r4, [sp, #80]	; 0x50
  __HAL_RCC_GPIOE_CLK_ENABLE();
 8000dba:	6b19      	ldr	r1, [r3, #48]	; 0x30
  __HAL_RCC_GPIOC_CLK_ENABLE();
  __HAL_RCC_GPIOA_CLK_ENABLE();
  __HAL_RCC_GPIOB_CLK_ENABLE();

  /*Configure GPIO pin Output Level */
  HAL_GPIO_WritePin(GPIOC, GPIO_PIN_1|GPIO_PIN_2, GPIO_PIN_RESET);
 8000dbc:	48ac      	ldr	r0, [pc, #688]	; (8001070 <main+0x2d8>)
  htim9.Instance = TIM9;
 8000dbe:	4dad      	ldr	r5, [pc, #692]	; (8001074 <main+0x2dc>)
  __HAL_RCC_GPIOE_CLK_ENABLE();
 8000dc0:	f041 0110 	orr.w	r1, r1, #16
 8000dc4:	6319      	str	r1, [r3, #48]	; 0x30
 8000dc6:	6b19      	ldr	r1, [r3, #48]	; 0x30
 8000dc8:	f001 0110 	and.w	r1, r1, #16
 8000dcc:	9109      	str	r1, [sp, #36]	; 0x24
 8000dce:	9909      	ldr	r1, [sp, #36]	; 0x24
  __HAL_RCC_GPIOH_CLK_ENABLE();
 8000dd0:	940a      	str	r4, [sp, #40]	; 0x28
 8000dd2:	6b19      	ldr	r1, [r3, #48]	; 0x30
 8000dd4:	f041 0180 	orr.w	r1, r1, #128	; 0x80
 8000dd8:	6319      	str	r1, [r3, #48]	; 0x30
 8000dda:	6b19      	ldr	r1, [r3, #48]	; 0x30
 8000ddc:	f001 0180 	and.w	r1, r1, #128	; 0x80
 8000de0:	910a      	str	r1, [sp, #40]	; 0x28
 8000de2:	990a      	ldr	r1, [sp, #40]	; 0x28
  __HAL_RCC_GPIOC_CLK_ENABLE();
 8000de4:	940b      	str	r4, [sp, #44]	; 0x2c
 8000de6:	6b19      	ldr	r1, [r3, #48]	; 0x30
 8000de8:	f041 0104 	orr.w	r1, r1, #4
 8000dec:	6319      	str	r1, [r3, #48]	; 0x30
 8000dee:	6b19      	ldr	r1, [r3, #48]	; 0x30
 8000df0:	f001 0104 	and.w	r1, r1, #4
 8000df4:	910b      	str	r1, [sp, #44]	; 0x2c
 8000df6:	990b      	ldr	r1, [sp, #44]	; 0x2c
  __HAL_RCC_GPIOA_CLK_ENABLE();
 8000df8:	940c      	str	r4, [sp, #48]	; 0x30
 8000dfa:	6b19      	ldr	r1, [r3, #48]	; 0x30
 8000dfc:	f041 0101 	orr.w	r1, r1, #1
 8000e00:	6319      	str	r1, [r3, #48]	; 0x30
 8000e02:	6b19      	ldr	r1, [r3, #48]	; 0x30
 8000e04:	f001 0101 	and.w	r1, r1, #1
 8000e08:	910c      	str	r1, [sp, #48]	; 0x30
 8000e0a:	990c      	ldr	r1, [sp, #48]	; 0x30
  __HAL_RCC_GPIOB_CLK_ENABLE();
 8000e0c:	940d      	str	r4, [sp, #52]	; 0x34
 8000e0e:	6b19      	ldr	r1, [r3, #48]	; 0x30
 8000e10:	f041 0102 	orr.w	r1, r1, #2
 8000e14:	6319      	str	r1, [r3, #48]	; 0x30
 8000e16:	6b1b      	ldr	r3, [r3, #48]	; 0x30
 8000e18:	f003 0302 	and.w	r3, r3, #2
  HAL_GPIO_WritePin(GPIOC, GPIO_PIN_1|GPIO_PIN_2, GPIO_PIN_RESET);
 8000e1c:	4622      	mov	r2, r4
  __HAL_RCC_GPIOB_CLK_ENABLE();
 8000e1e:	930d      	str	r3, [sp, #52]	; 0x34
  HAL_GPIO_WritePin(GPIOC, GPIO_PIN_1|GPIO_PIN_2, GPIO_PIN_RESET);
 8000e20:	2106      	movs	r1, #6
  __HAL_RCC_GPIOB_CLK_ENABLE();
 8000e22:	9b0d      	ldr	r3, [sp, #52]	; 0x34
  HAL_GPIO_WritePin(GPIOC, GPIO_PIN_1|GPIO_PIN_2, GPIO_PIN_RESET);
 8000e24:	f001 fc38 	bl	8002698 <HAL_GPIO_WritePin>

  /*Configure GPIO pin : PE6 */
  GPIO_InitStruct.Pin = GPIO_PIN_6;
 8000e28:	2240      	movs	r2, #64	; 0x40
 8000e2a:	f44f 1388 	mov.w	r3, #1114112	; 0x110000
  GPIO_InitStruct.Mode = GPIO_MODE_IT_RISING;
  GPIO_InitStruct.Pull = GPIO_NOPULL;
  HAL_GPIO_Init(GPIOE, &GPIO_InitStruct);
 8000e2e:	4892      	ldr	r0, [pc, #584]	; (8001078 <main+0x2e0>)
  GPIO_InitStruct.Pull = GPIO_NOPULL;
 8000e30:	9412      	str	r4, [sp, #72]	; 0x48
  HAL_GPIO_Init(GPIOE, &GPIO_InitStruct);
 8000e32:	a910      	add	r1, sp, #64	; 0x40
  GPIO_InitStruct.Pin = GPIO_PIN_6;
 8000e34:	e9cd 2310 	strd	r2, r3, [sp, #64]	; 0x40

  /*Configure GPIO pins : PC1 PC2 */
  GPIO_InitStruct.Pin = GPIO_PIN_1|GPIO_PIN_2;
 8000e38:	f04f 0800 	mov.w	r8, #0
  HAL_GPIO_Init(GPIOE, &GPIO_InitStruct);
 8000e3c:	f001 fb3a 	bl	80024b4 <HAL_GPIO_Init>
  GPIO_InitStruct.Pin = GPIO_PIN_1|GPIO_PIN_2;
 8000e40:	f04f 0900 	mov.w	r9, #0
 8000e44:	2206      	movs	r2, #6
 8000e46:	2301      	movs	r3, #1
  GPIO_InitStruct.Mode = GPIO_MODE_OUTPUT_PP;
  GPIO_InitStruct.Pull = GPIO_NOPULL;
  GPIO_InitStruct.Speed = GPIO_SPEED_FREQ_LOW;
  HAL_GPIO_Init(GPIOC, &GPIO_InitStruct);
 8000e48:	4889      	ldr	r0, [pc, #548]	; (8001070 <main+0x2d8>)
 8000e4a:	a910      	add	r1, sp, #64	; 0x40
  GPIO_InitStruct.Pin = GPIO_PIN_1|GPIO_PIN_2;
 8000e4c:	e9cd 2310 	strd	r2, r3, [sp, #64]	; 0x40

  /*Configure GPIO pins : PB0 PB1 PB2 PB3 */
  GPIO_InitStruct.Pin = GPIO_PIN_0|GPIO_PIN_1|GPIO_PIN_2|GPIO_PIN_3;
  GPIO_InitStruct.Mode = GPIO_MODE_IT_RISING;
  GPIO_InitStruct.Pull = GPIO_PULLUP;
 8000e50:	2601      	movs	r6, #1
  GPIO_InitStruct.Pin = GPIO_PIN_1|GPIO_PIN_2;
 8000e52:	e9cd 8912 	strd	r8, r9, [sp, #72]	; 0x48
  HAL_GPIO_Init(GPIOC, &GPIO_InitStruct);
 8000e56:	f001 fb2d 	bl	80024b4 <HAL_GPIO_Init>
  GPIO_InitStruct.Pin = GPIO_PIN_0|GPIO_PIN_1|GPIO_PIN_2|GPIO_PIN_3;
 8000e5a:	220f      	movs	r2, #15
 8000e5c:	f44f 1388 	mov.w	r3, #1114112	; 0x110000
  HAL_GPIO_Init(GPIOB, &GPIO_InitStruct);
 8000e60:	4886      	ldr	r0, [pc, #536]	; (800107c <main+0x2e4>)
  GPIO_InitStruct.Pull = GPIO_PULLUP;
 8000e62:	9612      	str	r6, [sp, #72]	; 0x48
  HAL_GPIO_Init(GPIOB, &GPIO_InitStruct);
 8000e64:	a910      	add	r1, sp, #64	; 0x40
  GPIO_InitStruct.Pin = GPIO_PIN_0|GPIO_PIN_1|GPIO_PIN_2|GPIO_PIN_3;
 8000e66:	e9cd 2310 	strd	r2, r3, [sp, #64]	; 0x40
  HAL_GPIO_Init(GPIOB, &GPIO_InitStruct);
 8000e6a:	f001 fb23 	bl	80024b4 <HAL_GPIO_Init>

  /*Configure GPIO pin : PC7 */
  GPIO_InitStruct.Pin = GPIO_PIN_7;
 8000e6e:	2280      	movs	r2, #128	; 0x80
 8000e70:	f44f 1388 	mov.w	r3, #1114112	; 0x110000
  GPIO_InitStruct.Mode = GPIO_MODE_IT_RISING;
  GPIO_InitStruct.Pull = GPIO_PULLUP;
  HAL_GPIO_Init(GPIOC, &GPIO_InitStruct);
 8000e74:	487e      	ldr	r0, [pc, #504]	; (8001070 <main+0x2d8>)
  GPIO_InitStruct.Pull = GPIO_PULLUP;
 8000e76:	9612      	str	r6, [sp, #72]	; 0x48
  HAL_GPIO_Init(GPIOC, &GPIO_InitStruct);
 8000e78:	a910      	add	r1, sp, #64	; 0x40
  GPIO_InitStruct.Pin = GPIO_PIN_7;
 8000e7a:	e9cd 2310 	strd	r2, r3, [sp, #64]	; 0x40
  HAL_GPIO_Init(GPIOC, &GPIO_InitStruct);
 8000e7e:	f001 fb19 	bl	80024b4 <HAL_GPIO_Init>

  /*Configure GPIO pin : PA9 */
  GPIO_InitStruct.Pin = GPIO_PIN_9;
 8000e82:	f44f 1388 	mov.w	r3, #1114112	; 0x110000
 8000e86:	f44f 7200 	mov.w	r2, #512	; 0x200
  GPIO_InitStruct.Mode = GPIO_MODE_IT_RISING;
  GPIO_InitStruct.Pull = GPIO_PULLUP;
  HAL_GPIO_Init(GPIOA, &GPIO_InitStruct);
 8000e8a:	487d      	ldr	r0, [pc, #500]	; (8001080 <main+0x2e8>)
  GPIO_InitStruct.Pull = GPIO_PULLUP;
 8000e8c:	9612      	str	r6, [sp, #72]	; 0x48
  HAL_GPIO_Init(GPIOA, &GPIO_InitStruct);
 8000e8e:	a910      	add	r1, sp, #64	; 0x40
  GPIO_InitStruct.Pin = GPIO_PIN_9;
 8000e90:	e9cd 2310 	strd	r2, r3, [sp, #64]	; 0x40
  HAL_GPIO_Init(GPIOA, &GPIO_InitStruct);
 8000e94:	f001 fb0e 	bl	80024b4 <HAL_GPIO_Init>

  /* EXTI interrupt init*/
  HAL_NVIC_SetPriority(EXTI0_IRQn, 0, 0);
 8000e98:	4622      	mov	r2, r4
 8000e9a:	4621      	mov	r1, r4
 8000e9c:	2006      	movs	r0, #6
 8000e9e:	f001 f99b 	bl	80021d8 <HAL_NVIC_SetPriority>
  HAL_NVIC_EnableIRQ(EXTI0_IRQn);
 8000ea2:	2006      	movs	r0, #6
 8000ea4:	f001 f9d6 	bl	8002254 <HAL_NVIC_EnableIRQ>

  HAL_NVIC_SetPriority(EXTI1_IRQn, 0, 0);
 8000ea8:	4622      	mov	r2, r4
 8000eaa:	4621      	mov	r1, r4
 8000eac:	2007      	movs	r0, #7
 8000eae:	f001 f993 	bl	80021d8 <HAL_NVIC_SetPriority>
  HAL_NVIC_EnableIRQ(EXTI1_IRQn);
 8000eb2:	2007      	movs	r0, #7
 8000eb4:	f001 f9ce 	bl	8002254 <HAL_NVIC_EnableIRQ>

  HAL_NVIC_SetPriority(EXTI2_IRQn, 0, 0);
 8000eb8:	4622      	mov	r2, r4
 8000eba:	4621      	mov	r1, r4
 8000ebc:	2008      	movs	r0, #8
 8000ebe:	f001 f98b 	bl	80021d8 <HAL_NVIC_SetPriority>
  HAL_NVIC_EnableIRQ(EXTI2_IRQn);
 8000ec2:	2008      	movs	r0, #8
 8000ec4:	f001 f9c6 	bl	8002254 <HAL_NVIC_EnableIRQ>

  HAL_NVIC_SetPriority(EXTI3_IRQn, 0, 0);
 8000ec8:	4622      	mov	r2, r4
 8000eca:	4621      	mov	r1, r4
 8000ecc:	2009      	movs	r0, #9
 8000ece:	f001 f983 	bl	80021d8 <HAL_NVIC_SetPriority>
  HAL_NVIC_EnableIRQ(EXTI3_IRQn);
 8000ed2:	2009      	movs	r0, #9
 8000ed4:	f001 f9be 	bl	8002254 <HAL_NVIC_EnableIRQ>

  HAL_NVIC_SetPriority(EXTI9_5_IRQn, 0, 0);
 8000ed8:	4622      	mov	r2, r4
 8000eda:	4621      	mov	r1, r4
 8000edc:	2017      	movs	r0, #23
 8000ede:	f001 f97b 	bl	80021d8 <HAL_NVIC_SetPriority>
  HAL_NVIC_EnableIRQ(EXTI9_5_IRQn);
 8000ee2:	2017      	movs	r0, #23
 8000ee4:	f001 f9b6 	bl	8002254 <HAL_NVIC_EnableIRQ>
  htim9.Instance = TIM9;
 8000ee8:	4b66      	ldr	r3, [pc, #408]	; (8001084 <main+0x2ec>)
 8000eea:	602b      	str	r3, [r5, #0]
  htim9.Init.AutoReloadPreload = TIM_AUTORELOAD_PRELOAD_ENABLE;
 8000eec:	2780      	movs	r7, #128	; 0x80
  htim9.Init.Period = 192;
 8000eee:	23c0      	movs	r3, #192	; 0xc0
  if (HAL_TIM_Base_Init(&htim9) != HAL_OK)
 8000ef0:	4628      	mov	r0, r5
  TIM_ClockConfigTypeDef sClockSourceConfig = {0};
 8000ef2:	e9cd 4410 	strd	r4, r4, [sp, #64]	; 0x40
 8000ef6:	e9cd 4412 	strd	r4, r4, [sp, #72]	; 0x48
  htim9.Init.CounterMode = TIM_COUNTERMODE_UP;
 8000efa:	e9c5 4401 	strd	r4, r4, [r5, #4]
  htim9.Init.ClockDivision = TIM_CLOCKDIVISION_DIV1;
 8000efe:	612c      	str	r4, [r5, #16]
  htim9.Init.AutoReloadPreload = TIM_AUTORELOAD_PRELOAD_ENABLE;
 8000f00:	61af      	str	r7, [r5, #24]
  htim9.Init.Period = 192;
 8000f02:	60eb      	str	r3, [r5, #12]
  if (HAL_TIM_Base_Init(&htim9) != HAL_OK)
 8000f04:	f002 f8f8 	bl	80030f8 <HAL_TIM_Base_Init>
 8000f08:	b108      	cbz	r0, 8000f0e <main+0x176>
 8000f0a:	b672      	cpsid	i
 8000f0c:	e7fe      	b.n	8000f0c <main+0x174>
  if (HAL_TIM_ConfigClockSource(&htim9, &sClockSourceConfig) != HAL_OK)
 8000f0e:	4628      	mov	r0, r5
 8000f10:	a910      	add	r1, sp, #64	; 0x40
  sClockSourceConfig.ClockSource = TIM_CLOCKSOURCE_INTERNAL;
 8000f12:	f44f 5580 	mov.w	r5, #4096	; 0x1000
 8000f16:	9510      	str	r5, [sp, #64]	; 0x40
  if (HAL_TIM_ConfigClockSource(&htim9, &sClockSourceConfig) != HAL_OK)
 8000f18:	f002 f9b8 	bl	800328c <HAL_TIM_ConfigClockSource>
 8000f1c:	b9e8      	cbnz	r0, 8000f5a <main+0x1c2>
  hadc1.Instance = ADC1;
 8000f1e:	4c5a      	ldr	r4, [pc, #360]	; (8001088 <main+0x2f0>)
  hadc1.Init.ExternalTrigConv = ADC_SOFTWARE_START;
 8000f20:	4a5a      	ldr	r2, [pc, #360]	; (800108c <main+0x2f4>)
  hadc1.Init.Resolution = ADC_RESOLUTION_12B;
 8000f22:	60a0      	str	r0, [r4, #8]
  ADC_ChannelConfTypeDef sConfig = {0};
 8000f24:	e9cd 0010 	strd	r0, r0, [sp, #64]	; 0x40
 8000f28:	e9cd 0012 	strd	r0, r0, [sp, #72]	; 0x48
  hadc1.Init.ScanConvMode = DISABLE;
 8000f2c:	6120      	str	r0, [r4, #16]
  hadc1.Init.ContinuousConvMode = DISABLE;
 8000f2e:	7620      	strb	r0, [r4, #24]
  hadc1.Init.DiscontinuousConvMode = DISABLE;
 8000f30:	f884 0020 	strb.w	r0, [r4, #32]
  hadc1.Init.DataAlign = ADC_DATAALIGN_RIGHT;
 8000f34:	60e0      	str	r0, [r4, #12]
  hadc1.Init.DMAContinuousRequests = DISABLE;
 8000f36:	f884 0030 	strb.w	r0, [r4, #48]	; 0x30
  hadc1.Init.ClockPrescaler = ADC_CLOCK_SYNC_PCLK_DIV4;
 8000f3a:	4855      	ldr	r0, [pc, #340]	; (8001090 <main+0x2f8>)
  hadc1.Init.NbrOfConversion = 1;
 8000f3c:	61e6      	str	r6, [r4, #28]
  hadc1.Init.ClockPrescaler = ADC_CLOCK_SYNC_PCLK_DIV4;
 8000f3e:	f44f 3380 	mov.w	r3, #65536	; 0x10000
 8000f42:	e9c4 0300 	strd	r0, r3, [r4]
  hadc1.Init.ExternalTrigConv = ADC_SOFTWARE_START;
 8000f46:	2300      	movs	r3, #0
 8000f48:	e9c4 230a 	strd	r2, r3, [r4, #40]	; 0x28
  if (HAL_ADC_Init(&hadc1) != HAL_OK)
 8000f4c:	4620      	mov	r0, r4
  hadc1.Init.EOCSelection = ADC_EOC_SINGLE_CONV;
 8000f4e:	6166      	str	r6, [r4, #20]
  if (HAL_ADC_Init(&hadc1) != HAL_OK)
 8000f50:	f000 ffc4 	bl	8001edc <HAL_ADC_Init>
 8000f54:	b118      	cbz	r0, 8000f5e <main+0x1c6>
 8000f56:	b672      	cpsid	i
 8000f58:	e7fe      	b.n	8000f58 <main+0x1c0>
 8000f5a:	b672      	cpsid	i
 8000f5c:	e7fe      	b.n	8000f5c <main+0x1c4>
  sConfig.Channel = ADC_CHANNEL_1;
 8000f5e:	2301      	movs	r3, #1
  sConfig.SamplingTime = ADC_SAMPLETIME_3CYCLES;
 8000f60:	9012      	str	r0, [sp, #72]	; 0x48
  sConfig.Channel = ADC_CHANNEL_1;
 8000f62:	2201      	movs	r2, #1
  if (HAL_ADC_ConfigChannel(&hadc1, &sConfig) != HAL_OK)
 8000f64:	4620      	mov	r0, r4
 8000f66:	a910      	add	r1, sp, #64	; 0x40
  sConfig.Channel = ADC_CHANNEL_1;
 8000f68:	e9cd 2310 	strd	r2, r3, [sp, #64]	; 0x40
  if (HAL_ADC_ConfigChannel(&hadc1, &sConfig) != HAL_OK)
 8000f6c:	f001 f864 	bl	8002038 <HAL_ADC_ConfigChannel>
 8000f70:	4603      	mov	r3, r0
 8000f72:	b978      	cbnz	r0, 8000f94 <main+0x1fc>
  htim10.Instance = TIM10;
 8000f74:	4847      	ldr	r0, [pc, #284]	; (8001094 <main+0x2fc>)
  htim10.Init.Period = 65535;
 8000f76:	f64f 74ff 	movw	r4, #65535	; 0xffff
  htim10.Init.CounterMode = TIM_COUNTERMODE_UP;
 8000f7a:	e9c0 3301 	strd	r3, r3, [r0, #4]
  htim10.Init.ClockDivision = TIM_CLOCKDIVISION_DIV1;
 8000f7e:	6103      	str	r3, [r0, #16]
  htim10.Instance = TIM10;
 8000f80:	4b45      	ldr	r3, [pc, #276]	; (8001098 <main+0x300>)
 8000f82:	6003      	str	r3, [r0, #0]
  htim10.Init.AutoReloadPreload = TIM_AUTORELOAD_PRELOAD_ENABLE;
 8000f84:	6187      	str	r7, [r0, #24]
  htim10.Init.Period = 65535;
 8000f86:	60c4      	str	r4, [r0, #12]
  if (HAL_TIM_Base_Init(&htim10) != HAL_OK)
 8000f88:	f002 f8b6 	bl	80030f8 <HAL_TIM_Base_Init>
 8000f8c:	4603      	mov	r3, r0
 8000f8e:	b118      	cbz	r0, 8000f98 <main+0x200>
 8000f90:	b672      	cpsid	i
 8000f92:	e7fe      	b.n	8000f92 <main+0x1fa>
 8000f94:	b672      	cpsid	i
 8000f96:	e7fe      	b.n	8000f96 <main+0x1fe>
  htim11.Instance = TIM11;
 8000f98:	4840      	ldr	r0, [pc, #256]	; (800109c <main+0x304>)
  htim11.Init.CounterMode = TIM_COUNTERMODE_UP;
 8000f9a:	e9c0 3301 	strd	r3, r3, [r0, #4]
  htim11.Init.ClockDivision = TIM_CLOCKDIVISION_DIV1;
 8000f9e:	6103      	str	r3, [r0, #16]
  htim11.Init.AutoReloadPreload = TIM_AUTORELOAD_PRELOAD_DISABLE;
 8000fa0:	6183      	str	r3, [r0, #24]
  htim11.Instance = TIM11;
 8000fa2:	4b3f      	ldr	r3, [pc, #252]	; (80010a0 <main+0x308>)
 8000fa4:	6003      	str	r3, [r0, #0]
  htim11.Init.Period = 65535;
 8000fa6:	60c4      	str	r4, [r0, #12]
  if (HAL_TIM_Base_Init(&htim11) != HAL_OK)
 8000fa8:	f002 f8a6 	bl	80030f8 <HAL_TIM_Base_Init>
 8000fac:	4603      	mov	r3, r0
 8000fae:	b108      	cbz	r0, 8000fb4 <main+0x21c>
 8000fb0:	b672      	cpsid	i
 8000fb2:	e7fe      	b.n	8000fb2 <main+0x21a>
  hi2c1.Instance = I2C1;
 8000fb4:	483b      	ldr	r0, [pc, #236]	; (80010a4 <main+0x30c>)
  hi2c1.Init.ClockSpeed = 100000;
 8000fb6:	493c      	ldr	r1, [pc, #240]	; (80010a8 <main+0x310>)
  hi2c1.Init.OwnAddress1 = 0;
 8000fb8:	e9c0 3302 	strd	r3, r3, [r0, #8]
  hi2c1.Init.OwnAddress2 = 0;
 8000fbc:	e9c0 3305 	strd	r3, r3, [r0, #20]
  hi2c1.Init.NoStretchMode = I2C_NOSTRETCH_DISABLE;
 8000fc0:	e9c0 3307 	strd	r3, r3, [r0, #28]
  hi2c1.Init.ClockSpeed = 100000;
 8000fc4:	4b39      	ldr	r3, [pc, #228]	; (80010ac <main+0x314>)
 8000fc6:	e9c0 1300 	strd	r1, r3, [r0]
  hi2c1.Init.AddressingMode = I2C_ADDRESSINGMODE_7BIT;
 8000fca:	f44f 4380 	mov.w	r3, #16384	; 0x4000
 8000fce:	6103      	str	r3, [r0, #16]
  if (HAL_I2C_Init(&hi2c1) != HAL_OK)
 8000fd0:	f001 fb72 	bl	80026b8 <HAL_I2C_Init>
 8000fd4:	b108      	cbz	r0, 8000fda <main+0x242>
 8000fd6:	b672      	cpsid	i
 8000fd8:	e7fe      	b.n	8000fd8 <main+0x240>
  htim2.Instance = TIM2;
 8000fda:	4c35      	ldr	r4, [pc, #212]	; (80010b0 <main+0x318>)
  htim2.Init.Period = 240000;
 8000fdc:	4b35      	ldr	r3, [pc, #212]	; (80010b4 <main+0x31c>)
  htim2.Init.ClockDivision = TIM_CLOCKDIVISION_DIV1;
 8000fde:	6120      	str	r0, [r4, #16]
  TIM_ClockConfigTypeDef sClockSourceConfig = {0};
 8000fe0:	e9cd 0010 	strd	r0, r0, [sp, #64]	; 0x40
 8000fe4:	e9cd 0012 	strd	r0, r0, [sp, #72]	; 0x48
  TIM_MasterConfigTypeDef sMasterConfig = {0};
 8000fe8:	e9cd 000e 	strd	r0, r0, [sp, #56]	; 0x38
  htim2.Init.CounterMode = TIM_COUNTERMODE_UP;
 8000fec:	e9c4 0001 	strd	r0, r0, [r4, #4]
  htim2.Init.Period = 240000;
 8000ff0:	60e3      	str	r3, [r4, #12]
  if (HAL_TIM_Base_Init(&htim2) != HAL_OK)
 8000ff2:	4620      	mov	r0, r4
  htim2.Instance = TIM2;
 8000ff4:	f04f 4380 	mov.w	r3, #1073741824	; 0x40000000
  htim2.Init.AutoReloadPreload = TIM_AUTORELOAD_PRELOAD_ENABLE;
 8000ff8:	61a7      	str	r7, [r4, #24]
  htim2.Instance = TIM2;
 8000ffa:	6023      	str	r3, [r4, #0]
  if (HAL_TIM_Base_Init(&htim2) != HAL_OK)
 8000ffc:	f002 f87c 	bl	80030f8 <HAL_TIM_Base_Init>
 8001000:	b108      	cbz	r0, 8001006 <main+0x26e>
 8001002:	b672      	cpsid	i
 8001004:	e7fe      	b.n	8001004 <main+0x26c>
  if (HAL_TIM_ConfigClockSource(&htim2, &sClockSourceConfig) != HAL_OK)
 8001006:	a910      	add	r1, sp, #64	; 0x40
 8001008:	4620      	mov	r0, r4
  sClockSourceConfig.ClockSource = TIM_CLOCKSOURCE_INTERNAL;
 800100a:	9510      	str	r5, [sp, #64]	; 0x40
  if (HAL_TIM_ConfigClockSource(&htim2, &sClockSourceConfig) != HAL_OK)
 800100c:	f002 f93e 	bl	800328c <HAL_TIM_ConfigClockSource>
 8001010:	b108      	cbz	r0, 8001016 <main+0x27e>
 8001012:	b672      	cpsid	i
 8001014:	e7fe      	b.n	8001014 <main+0x27c>
  if (HAL_TIMEx_MasterConfigSynchronization(&htim2, &sMasterConfig) != HAL_OK)
 8001016:	4620      	mov	r0, r4
 8001018:	a90e      	add	r1, sp, #56	; 0x38
  sMasterConfig.MasterOutputTrigger = TIM_TRGO_RESET;
 800101a:	e9cd 890e 	strd	r8, r9, [sp, #56]	; 0x38
  if (HAL_TIMEx_MasterConfigSynchronization(&htim2, &sMasterConfig) != HAL_OK)
 800101e:	f002 fa97 	bl	8003550 <HAL_TIMEx_MasterConfigSynchronization>
 8001022:	b108      	cbz	r0, 8001028 <main+0x290>
 8001024:	b672      	cpsid	i
 8001026:	e7fe      	b.n	8001026 <main+0x28e>
  htim5.Instance = TIM5;
 8001028:	4c23      	ldr	r4, [pc, #140]	; (80010b8 <main+0x320>)
 800102a:	4a24      	ldr	r2, [pc, #144]	; (80010bc <main+0x324>)
 800102c:	6022      	str	r2, [r4, #0]
  htim5.Init.Period = 240000;
 800102e:	4a21      	ldr	r2, [pc, #132]	; (80010b4 <main+0x31c>)
 8001030:	60e2      	str	r2, [r4, #12]
  TIM_ClockConfigTypeDef sClockSourceConfig = {0};
 8001032:	2300      	movs	r3, #0
  htim5.Init.AutoReloadPreload = TIM_AUTORELOAD_PRELOAD_ENABLE;
 8001034:	2280      	movs	r2, #128	; 0x80
  if (HAL_TIM_Base_Init(&htim5) != HAL_OK)
 8001036:	4620      	mov	r0, r4
  TIM_ClockConfigTypeDef sClockSourceConfig = {0};
 8001038:	e9cd 3310 	strd	r3, r3, [sp, #64]	; 0x40
 800103c:	e9cd 3312 	strd	r3, r3, [sp, #72]	; 0x48
  TIM_MasterConfigTypeDef sMasterConfig = {0};
 8001040:	e9cd 330e 	strd	r3, r3, [sp, #56]	; 0x38
  htim5.Init.CounterMode = TIM_COUNTERMODE_UP;
 8001044:	e9c4 3301 	strd	r3, r3, [r4, #4]
  htim5.Init.ClockDivision = TIM_CLOCKDIVISION_DIV1;
 8001048:	6123      	str	r3, [r4, #16]
  htim5.Init.AutoReloadPreload = TIM_AUTORELOAD_PRELOAD_ENABLE;
 800104a:	61a2      	str	r2, [r4, #24]
  if (HAL_TIM_Base_Init(&htim5) != HAL_OK)
 800104c:	f002 f854 	bl	80030f8 <HAL_TIM_Base_Init>
 8001050:	b108      	cbz	r0, 8001056 <main+0x2be>
 8001052:	b672      	cpsid	i
 8001054:	e7fe      	b.n	8001054 <main+0x2bc>
  sClockSourceConfig.ClockSource = TIM_CLOCKSOURCE_INTERNAL;
 8001056:	f44f 5380 	mov.w	r3, #4096	; 0x1000
  if (HAL_TIM_ConfigClockSource(&htim5, &sClockSourceConfig) != HAL_OK)
 800105a:	a910      	add	r1, sp, #64	; 0x40
 800105c:	4620      	mov	r0, r4
  sClockSourceConfig.ClockSource = TIM_CLOCKSOURCE_INTERNAL;
 800105e:	9310      	str	r3, [sp, #64]	; 0x40
  if (HAL_TIM_ConfigClockSource(&htim5, &sClockSourceConfig) != HAL_OK)
 8001060:	f002 f914 	bl	800328c <HAL_TIM_ConfigClockSource>
 8001064:	b360      	cbz	r0, 80010c0 <main+0x328>
 8001066:	b672      	cpsid	i
 8001068:	e7fe      	b.n	8001068 <main+0x2d0>
 800106a:	bf00      	nop
 800106c:	40023800 	.word	0x40023800
 8001070:	40020800 	.word	0x40020800
 8001074:	200002bc 	.word	0x200002bc
 8001078:	40021000 	.word	0x40021000
 800107c:	40020400 	.word	0x40020400
 8001080:	40020000 	.word	0x40020000
 8001084:	40014000 	.word	0x40014000
 8001088:	20000100 	.word	0x20000100
 800108c:	0f000001 	.word	0x0f000001
 8001090:	40012000 	.word	0x40012000
 8001094:	2000019c 	.word	0x2000019c
 8001098:	40014400 	.word	0x40014400
 800109c:	200001e4 	.word	0x200001e4
 80010a0:	40014800 	.word	0x40014800
 80010a4:	20000148 	.word	0x20000148
 80010a8:	40005400 	.word	0x40005400
 80010ac:	000186a0 	.word	0x000186a0
 80010b0:	2000022c 	.word	0x2000022c
 80010b4:	0003a980 	.word	0x0003a980
 80010b8:	20000274 	.word	0x20000274
 80010bc:	40000c00 	.word	0x40000c00
  sMasterConfig.MasterOutputTrigger = TIM_TRGO_RESET;
 80010c0:	2200      	movs	r2, #0
 80010c2:	2300      	movs	r3, #0
  if (HAL_TIMEx_MasterConfigSynchronization(&htim5, &sMasterConfig) != HAL_OK)
 80010c4:	a90e      	add	r1, sp, #56	; 0x38
 80010c6:	4620      	mov	r0, r4
  sMasterConfig.MasterOutputTrigger = TIM_TRGO_RESET;
 80010c8:	e9cd 230e 	strd	r2, r3, [sp, #56]	; 0x38
  if (HAL_TIMEx_MasterConfigSynchronization(&htim5, &sMasterConfig) != HAL_OK)
 80010cc:	f002 fa40 	bl	8003550 <HAL_TIMEx_MasterConfigSynchronization>
 80010d0:	4607      	mov	r7, r0
 80010d2:	b108      	cbz	r0, 80010d8 <main+0x340>
 80010d4:	b672      	cpsid	i
 80010d6:	e7fe      	b.n	80010d6 <main+0x33e>
  lcd_init();
 80010d8:	f7ff fc8a 	bl	80009f0 <lcd_init>
//nazalost ne radi dobro :(
static void set_local_osc(float freq){
	TIM9->ARR = (uint16_t)(48e3/freq+1);
}
static void reset_data(){
	MA_min_val = 4095;
 80010dc:	4ab8      	ldr	r2, [pc, #736]	; (80013c0 <main+0x628>)
	MF_max_val = 0;
	EF_min_val = 65535;
	MF_rdy = 0;
 80010de:	4eb9      	ldr	r6, [pc, #740]	; (80013c4 <main+0x62c>)
	EF_rdy = 0;
	ADC1->SR &= ~0x10;
 80010e0:	49b9      	ldr	r1, [pc, #740]	; (80013c8 <main+0x630>)
  MA_mov_avg_index = 0;
 80010e2:	f8df a36c 	ldr.w	sl, [pc, #876]	; 8001450 <main+0x6b8>
  EF_mov_avg_index = 0;
 80010e6:	f8df b36c 	ldr.w	fp, [pc, #876]	; 8001454 <main+0x6bc>
  flashCheck = read_data(FLASH_MEMORY_BEGIN);
 80010ea:	48b8      	ldr	r0, [pc, #736]	; (80013cc <main+0x634>)
	MA_min_val = 4095;
 80010ec:	f640 73ff 	movw	r3, #4095	; 0xfff
 80010f0:	6013      	str	r3, [r2, #0]
	MF_max_val = 0;
 80010f2:	4ab7      	ldr	r2, [pc, #732]	; (80013d0 <main+0x638>)
 80010f4:	6017      	str	r7, [r2, #0]
	EF_min_val = 65535;
 80010f6:	4ab7      	ldr	r2, [pc, #732]	; (80013d4 <main+0x63c>)
 80010f8:	f64f 73ff 	movw	r3, #65535	; 0xffff
 80010fc:	6013      	str	r3, [r2, #0]
	EF_rdy = 0;
 80010fe:	4bb6      	ldr	r3, [pc, #728]	; (80013d8 <main+0x640>)
	MF_rdy = 0;
 8001100:	7037      	strb	r7, [r6, #0]
	EF_rdy = 0;
 8001102:	701f      	strb	r7, [r3, #0]
	ADC1->SR &= ~0x10;
 8001104:	680a      	ldr	r2, [r1, #0]
  EFWeight = EFreqWeight / (EFreqWeight + MFreqWeight + MAmplWeight);
 8001106:	4bb5      	ldr	r3, [pc, #724]	; (80013dc <main+0x644>)
	ADC1->SR &= ~0x10;
 8001108:	f022 0210 	bic.w	r2, r2, #16
 800110c:	600a      	str	r2, [r1, #0]
  MF_mov_avg_index = 0;
 800110e:	4ab4      	ldr	r2, [pc, #720]	; (80013e0 <main+0x648>)
 8001110:	7017      	strb	r7, [r2, #0]
  EFWeight = EFreqWeight / (EFreqWeight + MFreqWeight + MAmplWeight);
 8001112:	4ab4      	ldr	r2, [pc, #720]	; (80013e4 <main+0x64c>)
  MA_mov_avg_index = 0;
 8001114:	f88a 7000 	strb.w	r7, [sl]
  EF_mov_avg_index = 0;
 8001118:	f88b 7000 	strb.w	r7, [fp]
  EFWeight = EFreqWeight / (EFreqWeight + MFreqWeight + MAmplWeight);
 800111c:	6013      	str	r3, [r2, #0]
  MFWeight = MFreqWeight / (EFreqWeight + MFreqWeight + MAmplWeight);
 800111e:	4ab2      	ldr	r2, [pc, #712]	; (80013e8 <main+0x650>)
 8001120:	6013      	str	r3, [r2, #0]
  MAWeight = MAmplWeight / (EFreqWeight + MFreqWeight + MAmplWeight);
 8001122:	4ab2      	ldr	r2, [pc, #712]	; (80013ec <main+0x654>)
 8001124:	6013      	str	r3, [r2, #0]
  flashCheck = read_data(FLASH_MEMORY_BEGIN);
 8001126:	f7ff fc1d 	bl	8000964 <read_data>
  if(flashCheck == 8){
 800112a:	b2c3      	uxtb	r3, r0
 800112c:	2b08      	cmp	r3, #8
 800112e:	f000 838e 	beq.w	800184e <main+0xab6>
 8001132:	4aaf      	ldr	r2, [pc, #700]	; (80013f0 <main+0x658>)
 8001134:	4baf      	ldr	r3, [pc, #700]	; (80013f4 <main+0x65c>)
 8001136:	9204      	str	r2, [sp, #16]
 8001138:	9303      	str	r3, [sp, #12]
  		savedCoins[i].currencyName[0] = 'E';
 800113a:	2045      	movs	r0, #69	; 0x45
  		savedCoins[i].currencyName[1] = 'U';
 800113c:	2155      	movs	r1, #85	; 0x55
  		savedCoins[i].currencyName[2] = 'R';
 800113e:	2252      	movs	r2, #82	; 0x52
  		savedCoins[i].value = coin_values[i];
 8001140:	9c04      	ldr	r4, [sp, #16]
  		savedCoins[i].coinID = i;
 8001142:	701f      	strb	r7, [r3, #0]
  		savedCoins[i].value = coin_values[i];
 8001144:	eb04 0487 	add.w	r4, r4, r7, lsl #2
  	for(i = 0;i<8;i++){
 8001148:	3701      	adds	r7, #1
  		savedCoins[i].value = coin_values[i];
 800114a:	6824      	ldr	r4, [r4, #0]
  		savedCoins[i].currencyName[0] = 'E';
 800114c:	7058      	strb	r0, [r3, #1]
  	for(i = 0;i<8;i++){
 800114e:	2f08      	cmp	r7, #8
  		savedCoins[i].currencyName[1] = 'U';
 8001150:	7099      	strb	r1, [r3, #2]
  		savedCoins[i].currencyName[2] = 'R';
 8001152:	70da      	strb	r2, [r3, #3]
  		savedCoins[i].value = coin_values[i];
 8001154:	605c      	str	r4, [r3, #4]
  	for(i = 0;i<8;i++){
 8001156:	f103 0314 	add.w	r3, r3, #20
 800115a:	d1f1      	bne.n	8001140 <main+0x3a8>
 800115c:	4ca6      	ldr	r4, [pc, #664]	; (80013f8 <main+0x660>)
 800115e:	7027      	strb	r7, [r4, #0]
  if(debug_mode){
 8001160:	4ba6      	ldr	r3, [pc, #664]	; (80013fc <main+0x664>)
 8001162:	781b      	ldrb	r3, [r3, #0]
 8001164:	f003 02ff 	and.w	r2, r3, #255	; 0xff
 8001168:	2b00      	cmp	r3, #0
 800116a:	f000 8210 	beq.w	800158e <main+0x7f6>
	  counting_mode = 1;
 800116e:	4aa4      	ldr	r2, [pc, #656]	; (8001400 <main+0x668>)
	  cal_mode = 0;
 8001170:	49a4      	ldr	r1, [pc, #656]	; (8001404 <main+0x66c>)
	  counting_mode = 1;
 8001172:	9205      	str	r2, [sp, #20]
 8001174:	2301      	movs	r3, #1
 8001176:	7013      	strb	r3, [r2, #0]
	  cal_mode = 0;
 8001178:	2300      	movs	r3, #0
 800117a:	9106      	str	r1, [sp, #24]
 800117c:	700b      	strb	r3, [r1, #0]
  HAL_TIM_Base_Start_IT(&htim10);
 800117e:	48a2      	ldr	r0, [pc, #648]	; (8001408 <main+0x670>)
  ADC1->CR2 |= 0x01;
 8001180:	f8df 9244 	ldr.w	r9, [pc, #580]	; 80013c8 <main+0x630>
 8001184:	4fa1      	ldr	r7, [pc, #644]	; (800140c <main+0x674>)
  HAL_TIM_Base_Start_IT(&htim10);
 8001186:	f002 f835 	bl	80031f4 <HAL_TIM_Base_Start_IT>
  HAL_TIM_Base_Start_IT(&htim11);
 800118a:	48a1      	ldr	r0, [pc, #644]	; (8001410 <main+0x678>)
 800118c:	f002 f832 	bl	80031f4 <HAL_TIM_Base_Start_IT>
  HAL_TIM_Base_Start_IT(&htim2);
 8001190:	48a0      	ldr	r0, [pc, #640]	; (8001414 <main+0x67c>)
 8001192:	f002 f82f 	bl	80031f4 <HAL_TIM_Base_Start_IT>
  HAL_TIM_Base_Start_IT(&htim5);
 8001196:	48a0      	ldr	r0, [pc, #640]	; (8001418 <main+0x680>)
 8001198:	f002 f82c 	bl	80031f4 <HAL_TIM_Base_Start_IT>
  ADC1->CR2 |= 0x01;
 800119c:	f8d9 3008 	ldr.w	r3, [r9, #8]
 80011a0:	f043 0301 	orr.w	r3, r3, #1
 80011a4:	f8c9 3008 	str.w	r3, [r9, #8]
  display_total_init();
 80011a8:	f7ff fca6 	bl	8000af8 <display_total_init>
  display_total_update(0);
 80011ac:	ed9f 0a9b 	vldr	s0, [pc, #620]	; 800141c <main+0x684>
 80011b0:	f7ff fd00 	bl	8000bb4 <display_total_update>
 80011b4:	4b9a      	ldr	r3, [pc, #616]	; (8001420 <main+0x688>)
 80011b6:	9300      	str	r3, [sp, #0]
 80011b8:	4b9a      	ldr	r3, [pc, #616]	; (8001424 <main+0x68c>)
	servo2_timer = (ang*120)+7440;
 80011ba:	4a9b      	ldr	r2, [pc, #620]	; (8001428 <main+0x690>)
 80011bc:	9402      	str	r4, [sp, #8]
 80011be:	461d      	mov	r5, r3
 80011c0:	4b9a      	ldr	r3, [pc, #616]	; (800142c <main+0x694>)
 80011c2:	9301      	str	r3, [sp, #4]
 80011c4:	f244 7340 	movw	r3, #18240	; 0x4740
	*(index) = *(index) + 1;
	*(index) %= moving_average_size;
	for(sum_index=0;sum_index<moving_average_size;sum_index++){
		sum += array_pointer[sum_index];
	}
	sum /= (float)moving_average_size;
 80011c8:	eeb4 8a00 	vmov.f32	s16, #64	; 0x3e000000  0.125
	servo2_timer = (ang*120)+7440;
 80011cc:	8013      	strh	r3, [r2, #0]
  while(!MF_sensor_output_stable && !MA_sensor_output_stable && !EF_sensor_output_stable ){
 80011ce:	4b98      	ldr	r3, [pc, #608]	; (8001430 <main+0x698>)
 80011d0:	781b      	ldrb	r3, [r3, #0]
 80011d2:	2b00      	cmp	r3, #0
 80011d4:	f040 8140 	bne.w	8001458 <main+0x6c0>
 80011d8:	4b96      	ldr	r3, [pc, #600]	; (8001434 <main+0x69c>)
 80011da:	781b      	ldrb	r3, [r3, #0]
 80011dc:	2b00      	cmp	r3, #0
 80011de:	f040 813b 	bne.w	8001458 <main+0x6c0>
 80011e2:	4b95      	ldr	r3, [pc, #596]	; (8001438 <main+0x6a0>)
 80011e4:	781b      	ldrb	r3, [r3, #0]
 80011e6:	f003 04ff 	and.w	r4, r3, #255	; 0xff
 80011ea:	2b00      	cmp	r3, #0
 80011ec:	f040 8134 	bne.w	8001458 <main+0x6c0>
	  if(MF_rdy == 1){
 80011f0:	7832      	ldrb	r2, [r6, #0]
 80011f2:	2a01      	cmp	r2, #1
 80011f4:	fa5f f882 	uxtb.w	r8, r2
 80011f8:	f000 8092 	beq.w	8001320 <main+0x588>
	  if(EF_rdy == 1){
 80011fc:	4b76      	ldr	r3, [pc, #472]	; (80013d8 <main+0x640>)
 80011fe:	781b      	ldrb	r3, [r3, #0]
 8001200:	2b01      	cmp	r3, #1
 8001202:	fa5f f883 	uxtb.w	r8, r3
 8001206:	d03d      	beq.n	8001284 <main+0x4ec>
	  if(MA_rdy){
 8001208:	f8d9 3000 	ldr.w	r3, [r9]
		  MA_new_val = ADC1->DR;
 800120c:	f8d9 304c 	ldr.w	r3, [r9, #76]	; 0x4c
 8001210:	603b      	str	r3, [r7, #0]
		  if(abs(MA_avg - MA_new_val)/MA_new_val < 0.01) {
 8001212:	4b8a      	ldr	r3, [pc, #552]	; (800143c <main+0x6a4>)
 8001214:	ed93 7a00 	vldr	s14, [r3]
 8001218:	edd7 7a00 	vldr	s15, [r7]
 800121c:	eef8 7a67 	vcvt.f32.u32	s15, s15
 8001220:	ee77 7a67 	vsub.f32	s15, s14, s15
 8001224:	ee17 0a90 	vmov	r0, s15
 8001228:	f7ff f93a 	bl	80004a0 <__aeabi_f2d>
 800122c:	ec41 0b10 	vmov	d0, r0, r1
 8001230:	f002 f9ca 	bl	80035c8 <abs>
 8001234:	683b      	ldr	r3, [r7, #0]
 8001236:	4298      	cmp	r0, r3
 8001238:	d203      	bcs.n	8001242 <main+0x4aa>
			  MA_sensor_output_stable = 1;
 800123a:	4b7e      	ldr	r3, [pc, #504]	; (8001434 <main+0x69c>)
 800123c:	f04f 0201 	mov.w	r2, #1
 8001240:	701a      	strb	r2, [r3, #0]
	array_pointer[*(index)] = new_value;
 8001242:	f89a 3000 	ldrb.w	r3, [sl]
 8001246:	f89a 2000 	ldrb.w	r2, [sl]
 800124a:	9901      	ldr	r1, [sp, #4]
	float sum = 0;
 800124c:	eddf 7a73 	vldr	s15, [pc, #460]	; 800141c <main+0x684>
	*(index) = *(index) + 1;
 8001250:	3301      	adds	r3, #1
	*(index) %= moving_average_size;
 8001252:	f003 0307 	and.w	r3, r3, #7
 8001256:	f88a 3000 	strb.w	r3, [sl]
		  MA_avg = moving_avg(&MA_mov_avg_index, MA_mov_avg, MA_new_val);
 800125a:	683b      	ldr	r3, [r7, #0]
	array_pointer[*(index)] = new_value;
 800125c:	f841 3022 	str.w	r3, [r1, r2, lsl #2]
 8001260:	4b72      	ldr	r3, [pc, #456]	; (800142c <main+0x694>)
 8001262:	9301      	str	r3, [sp, #4]
		sum += array_pointer[sum_index];
 8001264:	ecb3 7a01 	vldmia	r3!, {s14}
	for(sum_index=0;sum_index<moving_average_size;sum_index++){
 8001268:	3401      	adds	r4, #1
		sum += array_pointer[sum_index];
 800126a:	eeb8 7a47 	vcvt.f32.u32	s14, s14
	for(sum_index=0;sum_index<moving_average_size;sum_index++){
 800126e:	b2e4      	uxtb	r4, r4
 8001270:	2c08      	cmp	r4, #8
		sum += array_pointer[sum_index];
 8001272:	ee77 7a87 	vadd.f32	s15, s15, s14
	for(sum_index=0;sum_index<moving_average_size;sum_index++){
 8001276:	d1f5      	bne.n	8001264 <main+0x4cc>
	sum /= (float)moving_average_size;
 8001278:	ee67 7a88 	vmul.f32	s15, s15, s16
		  MA_avg = moving_avg(&MA_mov_avg_index, MA_mov_avg, MA_new_val);
 800127c:	4b6f      	ldr	r3, [pc, #444]	; (800143c <main+0x6a4>)
 800127e:	edc3 7a00 	vstr	s15, [r3]
 8001282:	e7a4      	b.n	80011ce <main+0x436>
		  EF_rdy = 0;
 8001284:	4a54      	ldr	r2, [pc, #336]	; (80013d8 <main+0x640>)
 8001286:	f04f 0300 	mov.w	r3, #0
 800128a:	7013      	strb	r3, [r2, #0]
		  if(abs(EF_avg - EF_new_val)/EF_avg < 0.01) {
 800128c:	4a6c      	ldr	r2, [pc, #432]	; (8001440 <main+0x6a8>)
 800128e:	4b6d      	ldr	r3, [pc, #436]	; (8001444 <main+0x6ac>)
 8001290:	ed93 7a00 	vldr	s14, [r3]
 8001294:	edd2 7a00 	vldr	s15, [r2]
 8001298:	eef8 7a67 	vcvt.f32.u32	s15, s15
 800129c:	ee77 7a67 	vsub.f32	s15, s14, s15
 80012a0:	ee17 0a90 	vmov	r0, s15
 80012a4:	f7ff f8fc 	bl	80004a0 <__aeabi_f2d>
 80012a8:	ec41 0b10 	vmov	d0, r0, r1
 80012ac:	f002 f98c 	bl	80035c8 <abs>
 80012b0:	4b64      	ldr	r3, [pc, #400]	; (8001444 <main+0x6ac>)
 80012b2:	ee07 0a90 	vmov	s15, r0
 80012b6:	ed93 7a00 	vldr	s14, [r3]
 80012ba:	eef8 7ae7 	vcvt.f32.s32	s15, s15
 80012be:	eec7 7a87 	vdiv.f32	s15, s15, s14
 80012c2:	ee17 0a90 	vmov	r0, s15
 80012c6:	f7ff f8eb 	bl	80004a0 <__aeabi_f2d>
 80012ca:	a33b      	add	r3, pc, #236	; (adr r3, 80013b8 <main+0x620>)
 80012cc:	e9d3 2300 	ldrd	r2, r3, [r3]
 80012d0:	f7ff f99e 	bl	8000610 <__aeabi_dcmplt>
 80012d4:	b110      	cbz	r0, 80012dc <main+0x544>
			  EF_sensor_output_stable = 1;
 80012d6:	4b58      	ldr	r3, [pc, #352]	; (8001438 <main+0x6a0>)
 80012d8:	f883 8000 	strb.w	r8, [r3]
	array_pointer[*(index)] = new_value;
 80012dc:	f89b 3000 	ldrb.w	r3, [fp]
 80012e0:	f89b 2000 	ldrb.w	r2, [fp]
	float sum = 0;
 80012e4:	eddf 7a4d 	vldr	s15, [pc, #308]	; 800141c <main+0x684>
	*(index) = *(index) + 1;
 80012e8:	3301      	adds	r3, #1
	*(index) %= moving_average_size;
 80012ea:	f003 0307 	and.w	r3, r3, #7
 80012ee:	f88b 3000 	strb.w	r3, [fp]
		  EF_avg = moving_avg(&EF_mov_avg_index, EF_mov_avg, EF_new_val);
 80012f2:	4b53      	ldr	r3, [pc, #332]	; (8001440 <main+0x6a8>)
 80012f4:	681b      	ldr	r3, [r3, #0]
	array_pointer[*(index)] = new_value;
 80012f6:	f845 3022 	str.w	r3, [r5, r2, lsl #2]
 80012fa:	4a4a      	ldr	r2, [pc, #296]	; (8001424 <main+0x68c>)
	for(sum_index=0;sum_index<moving_average_size;sum_index++){
 80012fc:	2300      	movs	r3, #0
 80012fe:	4615      	mov	r5, r2
		sum += array_pointer[sum_index];
 8001300:	ecb2 7a01 	vldmia	r2!, {s14}
	for(sum_index=0;sum_index<moving_average_size;sum_index++){
 8001304:	3301      	adds	r3, #1
		sum += array_pointer[sum_index];
 8001306:	eeb8 7a47 	vcvt.f32.u32	s14, s14
	for(sum_index=0;sum_index<moving_average_size;sum_index++){
 800130a:	b2db      	uxtb	r3, r3
 800130c:	2b08      	cmp	r3, #8
		sum += array_pointer[sum_index];
 800130e:	ee77 7a87 	vadd.f32	s15, s15, s14
	for(sum_index=0;sum_index<moving_average_size;sum_index++){
 8001312:	d1f5      	bne.n	8001300 <main+0x568>
	sum /= (float)moving_average_size;
 8001314:	ee67 7a88 	vmul.f32	s15, s15, s16
		  EF_avg = moving_avg(&EF_mov_avg_index, EF_mov_avg, EF_new_val);
 8001318:	4b4a      	ldr	r3, [pc, #296]	; (8001444 <main+0x6ac>)
 800131a:	edc3 7a00 	vstr	s15, [r3]
 800131e:	e773      	b.n	8001208 <main+0x470>
		  if(abs(MF_avg - MF_new_val)/MF_avg < 0.01) {
 8001320:	4a49      	ldr	r2, [pc, #292]	; (8001448 <main+0x6b0>)
		  MF_rdy = 0;
 8001322:	7033      	strb	r3, [r6, #0]
		  if(abs(MF_avg - MF_new_val)/MF_avg < 0.01) {
 8001324:	4b49      	ldr	r3, [pc, #292]	; (800144c <main+0x6b4>)
 8001326:	ed93 7a00 	vldr	s14, [r3]
 800132a:	edd2 7a00 	vldr	s15, [r2]
 800132e:	eef8 7a67 	vcvt.f32.u32	s15, s15
 8001332:	ee77 7a67 	vsub.f32	s15, s14, s15
 8001336:	ee17 0a90 	vmov	r0, s15
 800133a:	f7ff f8b1 	bl	80004a0 <__aeabi_f2d>
 800133e:	ec41 0b10 	vmov	d0, r0, r1
 8001342:	f002 f941 	bl	80035c8 <abs>
 8001346:	4b41      	ldr	r3, [pc, #260]	; (800144c <main+0x6b4>)
 8001348:	ee07 0a90 	vmov	s15, r0
 800134c:	ed93 7a00 	vldr	s14, [r3]
 8001350:	eef8 7ae7 	vcvt.f32.s32	s15, s15
 8001354:	eec7 7a87 	vdiv.f32	s15, s15, s14
 8001358:	ee17 0a90 	vmov	r0, s15
 800135c:	f7ff f8a0 	bl	80004a0 <__aeabi_f2d>
 8001360:	a315      	add	r3, pc, #84	; (adr r3, 80013b8 <main+0x620>)
 8001362:	e9d3 2300 	ldrd	r2, r3, [r3]
 8001366:	f7ff f953 	bl	8000610 <__aeabi_dcmplt>
 800136a:	b110      	cbz	r0, 8001372 <main+0x5da>
			  MF_sensor_output_stable = 1;
 800136c:	4b30      	ldr	r3, [pc, #192]	; (8001430 <main+0x698>)
 800136e:	f883 8000 	strb.w	r8, [r3]
	array_pointer[*(index)] = new_value;
 8001372:	4a1b      	ldr	r2, [pc, #108]	; (80013e0 <main+0x648>)
	float sum = 0;
 8001374:	eddf 7a29 	vldr	s15, [pc, #164]	; 800141c <main+0x684>
	array_pointer[*(index)] = new_value;
 8001378:	7813      	ldrb	r3, [r2, #0]
 800137a:	4611      	mov	r1, r2
	*(index) = *(index) + 1;
 800137c:	3301      	adds	r3, #1
	*(index) %= moving_average_size;
 800137e:	f003 0307 	and.w	r3, r3, #7
	array_pointer[*(index)] = new_value;
 8001382:	7812      	ldrb	r2, [r2, #0]
	*(index) %= moving_average_size;
 8001384:	700b      	strb	r3, [r1, #0]
		  MF_avg = moving_avg(&MF_mov_avg_index, MF_mov_avg, MF_new_val);
 8001386:	4b30      	ldr	r3, [pc, #192]	; (8001448 <main+0x6b0>)
	array_pointer[*(index)] = new_value;
 8001388:	9900      	ldr	r1, [sp, #0]
		  MF_avg = moving_avg(&MF_mov_avg_index, MF_mov_avg, MF_new_val);
 800138a:	681b      	ldr	r3, [r3, #0]
	array_pointer[*(index)] = new_value;
 800138c:	f841 3022 	str.w	r3, [r1, r2, lsl #2]
 8001390:	4a23      	ldr	r2, [pc, #140]	; (8001420 <main+0x688>)
 8001392:	9200      	str	r2, [sp, #0]
	for(sum_index=0;sum_index<moving_average_size;sum_index++){
 8001394:	2300      	movs	r3, #0
		sum += array_pointer[sum_index];
 8001396:	ecb2 7a01 	vldmia	r2!, {s14}
	for(sum_index=0;sum_index<moving_average_size;sum_index++){
 800139a:	3301      	adds	r3, #1
		sum += array_pointer[sum_index];
 800139c:	eeb8 7a47 	vcvt.f32.u32	s14, s14
	for(sum_index=0;sum_index<moving_average_size;sum_index++){
 80013a0:	b2db      	uxtb	r3, r3
 80013a2:	2b08      	cmp	r3, #8
		sum += array_pointer[sum_index];
 80013a4:	ee77 7a87 	vadd.f32	s15, s15, s14
	for(sum_index=0;sum_index<moving_average_size;sum_index++){
 80013a8:	d1f5      	bne.n	8001396 <main+0x5fe>
	sum /= (float)moving_average_size;
 80013aa:	ee67 7a88 	vmul.f32	s15, s15, s16
		  MF_avg = moving_avg(&MF_mov_avg_index, MF_mov_avg, MF_new_val);
 80013ae:	4b27      	ldr	r3, [pc, #156]	; (800144c <main+0x6b4>)
 80013b0:	edc3 7a00 	vstr	s15, [r3]
 80013b4:	e722      	b.n	80011fc <main+0x464>
 80013b6:	bf00      	nop
 80013b8:	47ae147b 	.word	0x47ae147b
 80013bc:	3f847ae1 	.word	0x3f847ae1
 80013c0:	20000004 	.word	0x20000004
 80013c4:	200000f8 	.word	0x200000f8
 80013c8:	40012000 	.word	0x40012000
 80013cc:	08060000 	.word	0x08060000
 80013d0:	200000cc 	.word	0x200000cc
 80013d4:	20000000 	.word	0x20000000
 80013d8:	2000008c 	.word	0x2000008c
 80013dc:	3eaaaaab 	.word	0x3eaaaaab
 80013e0:	200000f0 	.word	0x200000f0
 80013e4:	2000005c 	.word	0x2000005c
 80013e8:	200000c4 	.word	0x200000c4
 80013ec:	20000090 	.word	0x20000090
 80013f0:	20000008 	.word	0x20000008
 80013f4:	20000308 	.word	0x20000308
 80013f8:	20000304 	.word	0x20000304
 80013fc:	20000028 	.word	0x20000028
 8001400:	200000fd 	.word	0x200000fd
 8001404:	200000fa 	.word	0x200000fa
 8001408:	2000019c 	.word	0x2000019c
 800140c:	200000bc 	.word	0x200000bc
 8001410:	200001e4 	.word	0x200001e4
 8001414:	2000022c 	.word	0x2000022c
 8001418:	20000274 	.word	0x20000274
 800141c:	00000000 	.word	0x00000000
 8001420:	200000d0 	.word	0x200000d0
 8001424:	20000064 	.word	0x20000064
 8001428:	2000002c 	.word	0x2000002c
 800142c:	20000098 	.word	0x20000098
 8001430:	200000f9 	.word	0x200000f9
 8001434:	200000c0 	.word	0x200000c0
 8001438:	2000008d 	.word	0x2000008d
 800143c:	20000094 	.word	0x20000094
 8001440:	20000088 	.word	0x20000088
 8001444:	20000060 	.word	0x20000060
 8001448:	200000f4 	.word	0x200000f4
 800144c:	200000c8 	.word	0x200000c8
 8001450:	200000b8 	.word	0x200000b8
 8001454:	20000084 	.word	0x20000084
	MA_min_val = 4095;
 8001458:	49a2      	ldr	r1, [pc, #648]	; (80016e4 <main+0x94c>)
	ADC1->SR &= ~0x10;
 800145a:	f8df 82f8 	ldr.w	r8, [pc, #760]	; 8001754 <main+0x9bc>
	  		if(probability_match(&savedCoins[i], &current_coin) >= criticalCertainty){
 800145e:	eddf 9aa2 	vldr	s19, [pc, #648]	; 80016e8 <main+0x950>
 8001462:	9c02      	ldr	r4, [sp, #8]
	MA_min_val = 4095;
 8001464:	f640 72ff 	movw	r2, #4095	; 0xfff
 8001468:	600a      	str	r2, [r1, #0]
	MF_max_val = 0;
 800146a:	4aa0      	ldr	r2, [pc, #640]	; (80016ec <main+0x954>)
	EF_min_val = 65535;
 800146c:	49a0      	ldr	r1, [pc, #640]	; (80016f0 <main+0x958>)
	MF_max_val = 0;
 800146e:	2300      	movs	r3, #0
 8001470:	6013      	str	r3, [r2, #0]
	EF_min_val = 65535;
 8001472:	f64f 72ff 	movw	r2, #65535	; 0xffff
 8001476:	600a      	str	r2, [r1, #0]
	EF_rdy = 0;
 8001478:	4a9e      	ldr	r2, [pc, #632]	; (80016f4 <main+0x95c>)
	MF_rdy = 0;
 800147a:	7033      	strb	r3, [r6, #0]
	EF_rdy = 0;
 800147c:	7013      	strb	r3, [r2, #0]
	ADC1->SR &= ~0x10;
 800147e:	f8d8 3000 	ldr.w	r3, [r8]
 8001482:	f023 0310 	bic.w	r3, r3, #16
 8001486:	f8c8 3000 	str.w	r3, [r8]
	  while(!coin_inserted){
 800148a:	4b9b      	ldr	r3, [pc, #620]	; (80016f8 <main+0x960>)
 800148c:	781b      	ldrb	r3, [r3, #0]
 800148e:	f003 02ff 	and.w	r2, r3, #255	; 0xff
 8001492:	2b00      	cmp	r3, #0
 8001494:	f040 8083 	bne.w	800159e <main+0x806>
		  if(MF_rdy == 1)
 8001498:	7831      	ldrb	r1, [r6, #0]
 800149a:	2901      	cmp	r1, #1
 800149c:	d051      	beq.n	8001542 <main+0x7aa>
	  	  if(EF_rdy == 1)
 800149e:	4b95      	ldr	r3, [pc, #596]	; (80016f4 <main+0x95c>)
 80014a0:	781b      	ldrb	r3, [r3, #0]
 80014a2:	2b01      	cmp	r3, #1
 80014a4:	d027      	beq.n	80014f6 <main+0x75e>
	  	  if(MA_rdy){
 80014a6:	f8d8 3000 	ldr.w	r3, [r8]
	  		  MA_new_val = ADC1->DR;
 80014aa:	f8d8 304c 	ldr.w	r3, [r8, #76]	; 0x4c
 80014ae:	603b      	str	r3, [r7, #0]
	array_pointer[*(index)] = new_value;
 80014b0:	f89a 3000 	ldrb.w	r3, [sl]
 80014b4:	f89a 1000 	ldrb.w	r1, [sl]
 80014b8:	9801      	ldr	r0, [sp, #4]
	float sum = 0;
 80014ba:	eddf 7a90 	vldr	s15, [pc, #576]	; 80016fc <main+0x964>
	*(index) = *(index) + 1;
 80014be:	3301      	adds	r3, #1
	*(index) %= moving_average_size;
 80014c0:	f003 0307 	and.w	r3, r3, #7
 80014c4:	f88a 3000 	strb.w	r3, [sl]
	  		  MA_avg = moving_avg(&MA_mov_avg_index, MA_mov_avg, MA_new_val);
 80014c8:	683b      	ldr	r3, [r7, #0]
	array_pointer[*(index)] = new_value;
 80014ca:	f840 3021 	str.w	r3, [r0, r1, lsl #2]
 80014ce:	4b8c      	ldr	r3, [pc, #560]	; (8001700 <main+0x968>)
 80014d0:	9301      	str	r3, [sp, #4]
		sum += array_pointer[sum_index];
 80014d2:	ecb3 7a01 	vldmia	r3!, {s14}
	for(sum_index=0;sum_index<moving_average_size;sum_index++){
 80014d6:	3201      	adds	r2, #1
		sum += array_pointer[sum_index];
 80014d8:	eeb8 7a47 	vcvt.f32.u32	s14, s14
	for(sum_index=0;sum_index<moving_average_size;sum_index++){
 80014dc:	b2d2      	uxtb	r2, r2
 80014de:	2a08      	cmp	r2, #8
		sum += array_pointer[sum_index];
 80014e0:	ee77 7a87 	vadd.f32	s15, s15, s14
	for(sum_index=0;sum_index<moving_average_size;sum_index++){
 80014e4:	d1f5      	bne.n	80014d2 <main+0x73a>
	sum /= (float)moving_average_size;
 80014e6:	eeb4 7a00 	vmov.f32	s14, #64	; 0x3e000000  0.125
 80014ea:	ee67 7a87 	vmul.f32	s15, s15, s14
	  		  MA_avg = moving_avg(&MA_mov_avg_index, MA_mov_avg, MA_new_val);
 80014ee:	4b85      	ldr	r3, [pc, #532]	; (8001704 <main+0x96c>)
 80014f0:	edc3 7a00 	vstr	s15, [r3]
 80014f4:	e7c9      	b.n	800148a <main+0x6f2>
	  		  EF_rdy = 0;
 80014f6:	497f      	ldr	r1, [pc, #508]	; (80016f4 <main+0x95c>)
	array_pointer[*(index)] = new_value;
 80014f8:	f89b 0000 	ldrb.w	r0, [fp]
	float sum = 0;
 80014fc:	eddf 7a7f 	vldr	s15, [pc, #508]	; 80016fc <main+0x964>
	  		  EF_rdy = 0;
 8001500:	2300      	movs	r3, #0
 8001502:	700b      	strb	r3, [r1, #0]
	array_pointer[*(index)] = new_value;
 8001504:	f89b 1000 	ldrb.w	r1, [fp]
	*(index) = *(index) + 1;
 8001508:	3101      	adds	r1, #1
	*(index) %= moving_average_size;
 800150a:	f001 0107 	and.w	r1, r1, #7
 800150e:	f88b 1000 	strb.w	r1, [fp]
	  		  EF_avg = moving_avg(&EF_mov_avg_index, EF_mov_avg, EF_new_val);
 8001512:	497d      	ldr	r1, [pc, #500]	; (8001708 <main+0x970>)
 8001514:	6809      	ldr	r1, [r1, #0]
	array_pointer[*(index)] = new_value;
 8001516:	f845 1020 	str.w	r1, [r5, r0, lsl #2]
 800151a:	497c      	ldr	r1, [pc, #496]	; (800170c <main+0x974>)
 800151c:	460d      	mov	r5, r1
		sum += array_pointer[sum_index];
 800151e:	ecb1 7a01 	vldmia	r1!, {s14}
	for(sum_index=0;sum_index<moving_average_size;sum_index++){
 8001522:	3301      	adds	r3, #1
		sum += array_pointer[sum_index];
 8001524:	eeb8 7a47 	vcvt.f32.u32	s14, s14
	for(sum_index=0;sum_index<moving_average_size;sum_index++){
 8001528:	b2db      	uxtb	r3, r3
 800152a:	2b08      	cmp	r3, #8
		sum += array_pointer[sum_index];
 800152c:	ee77 7a87 	vadd.f32	s15, s15, s14
	for(sum_index=0;sum_index<moving_average_size;sum_index++){
 8001530:	d1f5      	bne.n	800151e <main+0x786>
	sum /= (float)moving_average_size;
 8001532:	eeb4 7a00 	vmov.f32	s14, #64	; 0x3e000000  0.125
 8001536:	ee67 7a87 	vmul.f32	s15, s15, s14
	  		  EF_avg = moving_avg(&EF_mov_avg_index, EF_mov_avg, EF_new_val);
 800153a:	4b75      	ldr	r3, [pc, #468]	; (8001710 <main+0x978>)
 800153c:	edc3 7a00 	vstr	s15, [r3]
 8001540:	e7b1      	b.n	80014a6 <main+0x70e>
	array_pointer[*(index)] = new_value;
 8001542:	4974      	ldr	r1, [pc, #464]	; (8001714 <main+0x97c>)
	  		  MF_rdy = 0;
 8001544:	7033      	strb	r3, [r6, #0]
	array_pointer[*(index)] = new_value;
 8001546:	780b      	ldrb	r3, [r1, #0]
	float sum = 0;
 8001548:	eddf 7a6c 	vldr	s15, [pc, #432]	; 80016fc <main+0x964>
	array_pointer[*(index)] = new_value;
 800154c:	4608      	mov	r0, r1
	*(index) = *(index) + 1;
 800154e:	3301      	adds	r3, #1
	*(index) %= moving_average_size;
 8001550:	f003 0307 	and.w	r3, r3, #7
	array_pointer[*(index)] = new_value;
 8001554:	7809      	ldrb	r1, [r1, #0]
	*(index) %= moving_average_size;
 8001556:	7003      	strb	r3, [r0, #0]
	  		  MF_avg = moving_avg(&MF_mov_avg_index, MF_mov_avg, MF_new_val);
 8001558:	4b6f      	ldr	r3, [pc, #444]	; (8001718 <main+0x980>)
	array_pointer[*(index)] = new_value;
 800155a:	9800      	ldr	r0, [sp, #0]
	  		  MF_avg = moving_avg(&MF_mov_avg_index, MF_mov_avg, MF_new_val);
 800155c:	681b      	ldr	r3, [r3, #0]
	array_pointer[*(index)] = new_value;
 800155e:	f840 3021 	str.w	r3, [r0, r1, lsl #2]
 8001562:	4b6e      	ldr	r3, [pc, #440]	; (800171c <main+0x984>)
 8001564:	9300      	str	r3, [sp, #0]
 8001566:	4619      	mov	r1, r3
	for(sum_index=0;sum_index<moving_average_size;sum_index++){
 8001568:	4613      	mov	r3, r2
		sum += array_pointer[sum_index];
 800156a:	ecb1 7a01 	vldmia	r1!, {s14}
	for(sum_index=0;sum_index<moving_average_size;sum_index++){
 800156e:	3301      	adds	r3, #1
		sum += array_pointer[sum_index];
 8001570:	eeb8 7a47 	vcvt.f32.u32	s14, s14
	for(sum_index=0;sum_index<moving_average_size;sum_index++){
 8001574:	b2db      	uxtb	r3, r3
 8001576:	2b08      	cmp	r3, #8
		sum += array_pointer[sum_index];
 8001578:	ee77 7a87 	vadd.f32	s15, s15, s14
	for(sum_index=0;sum_index<moving_average_size;sum_index++){
 800157c:	d1f5      	bne.n	800156a <main+0x7d2>
	sum /= (float)moving_average_size;
 800157e:	eeb4 7a00 	vmov.f32	s14, #64	; 0x3e000000  0.125
 8001582:	ee67 7a87 	vmul.f32	s15, s15, s14
	  		  MF_avg = moving_avg(&MF_mov_avg_index, MF_mov_avg, MF_new_val);
 8001586:	4b66      	ldr	r3, [pc, #408]	; (8001720 <main+0x988>)
 8001588:	edc3 7a00 	vstr	s15, [r3]
 800158c:	e787      	b.n	800149e <main+0x706>
	  cal_mode = 1;
 800158e:	4965      	ldr	r1, [pc, #404]	; (8001724 <main+0x98c>)
	  counting_mode = 0;
 8001590:	4865      	ldr	r0, [pc, #404]	; (8001728 <main+0x990>)
	  cal_mode = 1;
 8001592:	9106      	str	r1, [sp, #24]
 8001594:	2301      	movs	r3, #1
 8001596:	700b      	strb	r3, [r1, #0]
	  counting_mode = 0;
 8001598:	9005      	str	r0, [sp, #20]
 800159a:	7002      	strb	r2, [r0, #0]
 800159c:	e5ef      	b.n	800117e <main+0x3e6>
		  coin_inserted = 0;
 800159e:	2300      	movs	r3, #0
 80015a0:	e00d      	b.n	80015be <main+0x826>
	  	  if(EF_rdy == 1)
 80015a2:	4a54      	ldr	r2, [pc, #336]	; (80016f4 <main+0x95c>)
 80015a4:	7812      	ldrb	r2, [r2, #0]
 80015a6:	2a01      	cmp	r2, #1
 80015a8:	d020      	beq.n	80015ec <main+0x854>
	  	  if(MA_rdy){
 80015aa:	f8d8 2000 	ldr.w	r2, [r8]
	  		  MA_new_val = ADC1->DR;
 80015ae:	f8d8 204c 	ldr.w	r2, [r8, #76]	; 0x4c
 80015b2:	603a      	str	r2, [r7, #0]
	  		  if(MA_new_val < MA_min_val){
 80015b4:	4a4b      	ldr	r2, [pc, #300]	; (80016e4 <main+0x94c>)
 80015b6:	6839      	ldr	r1, [r7, #0]
 80015b8:	6812      	ldr	r2, [r2, #0]
 80015ba:	4291      	cmp	r1, r2
 80015bc:	d312      	bcc.n	80015e4 <main+0x84c>
	  while(coin_still_present){
 80015be:	4a5b      	ldr	r2, [pc, #364]	; (800172c <main+0x994>)
 80015c0:	7812      	ldrb	r2, [r2, #0]
 80015c2:	b1fa      	cbz	r2, 8001604 <main+0x86c>
		  coin_inserted = 0;
 80015c4:	4a4c      	ldr	r2, [pc, #304]	; (80016f8 <main+0x960>)
 80015c6:	7013      	strb	r3, [r2, #0]
		  if(MF_rdy == 1)
 80015c8:	7832      	ldrb	r2, [r6, #0]
 80015ca:	2a01      	cmp	r2, #1
 80015cc:	d1e9      	bne.n	80015a2 <main+0x80a>
	  		  if(MF_new_val < MF_max_val)
 80015ce:	4852      	ldr	r0, [pc, #328]	; (8001718 <main+0x980>)
 80015d0:	4a46      	ldr	r2, [pc, #280]	; (80016ec <main+0x954>)
	  		  MF_rdy = 0;
 80015d2:	7033      	strb	r3, [r6, #0]
	  		  if(MF_new_val < MF_max_val)
 80015d4:	6801      	ldr	r1, [r0, #0]
 80015d6:	6812      	ldr	r2, [r2, #0]
 80015d8:	4291      	cmp	r1, r2
 80015da:	d2e2      	bcs.n	80015a2 <main+0x80a>
	  			  MF_max_val = MF_new_val;
 80015dc:	4943      	ldr	r1, [pc, #268]	; (80016ec <main+0x954>)
 80015de:	6802      	ldr	r2, [r0, #0]
 80015e0:	600a      	str	r2, [r1, #0]
 80015e2:	e7de      	b.n	80015a2 <main+0x80a>
	  			  MA_min_val = MA_new_val;
 80015e4:	493f      	ldr	r1, [pc, #252]	; (80016e4 <main+0x94c>)
 80015e6:	683a      	ldr	r2, [r7, #0]
 80015e8:	600a      	str	r2, [r1, #0]
 80015ea:	e7e8      	b.n	80015be <main+0x826>
	  		  EF_rdy = 0;
 80015ec:	4a41      	ldr	r2, [pc, #260]	; (80016f4 <main+0x95c>)
	  		  if(EF_new_val > EF_min_val)
 80015ee:	4840      	ldr	r0, [pc, #256]	; (80016f0 <main+0x958>)
	  		  EF_rdy = 0;
 80015f0:	7013      	strb	r3, [r2, #0]
	  		  if(EF_new_val > EF_min_val)
 80015f2:	4a45      	ldr	r2, [pc, #276]	; (8001708 <main+0x970>)
 80015f4:	6811      	ldr	r1, [r2, #0]
 80015f6:	6802      	ldr	r2, [r0, #0]
 80015f8:	4291      	cmp	r1, r2
 80015fa:	d9d6      	bls.n	80015aa <main+0x812>
	  			  EF_min_val = MF_new_val;
 80015fc:	4a46      	ldr	r2, [pc, #280]	; (8001718 <main+0x980>)
 80015fe:	6812      	ldr	r2, [r2, #0]
 8001600:	6002      	str	r2, [r0, #0]
 8001602:	e7d2      	b.n	80015aa <main+0x812>
	  HAL_TIM_Base_Stop_IT(&htim10);
 8001604:	484a      	ldr	r0, [pc, #296]	; (8001730 <main+0x998>)
 8001606:	f001 fe29 	bl	800325c <HAL_TIM_Base_Stop_IT>
	  HAL_TIM_Base_Stop_IT(&htim11);
 800160a:	484a      	ldr	r0, [pc, #296]	; (8001734 <main+0x99c>)
 800160c:	f001 fe26 	bl	800325c <HAL_TIM_Base_Stop_IT>
	  DA = MA_avg/MA_min_val;
 8001610:	4b3c      	ldr	r3, [pc, #240]	; (8001704 <main+0x96c>)
 8001612:	ed93 5a00 	vldr	s10, [r3]
 8001616:	4b33      	ldr	r3, [pc, #204]	; (80016e4 <main+0x94c>)
 8001618:	ed93 6a00 	vldr	s12, [r3]
  	  DF = MF_max_val - MF_avg;
 800161c:	4b33      	ldr	r3, [pc, #204]	; (80016ec <main+0x954>)
 800161e:	edd3 7a00 	vldr	s15, [r3]
 8001622:	4b3f      	ldr	r3, [pc, #252]	; (8001720 <main+0x988>)
 8001624:	ed93 7a00 	vldr	s14, [r3]
  	  DV = EF_avg/EF_min_val;
 8001628:	4b39      	ldr	r3, [pc, #228]	; (8001710 <main+0x978>)
 800162a:	edd3 5a00 	vldr	s11, [r3]
 800162e:	4b30      	ldr	r3, [pc, #192]	; (80016f0 <main+0x958>)
 8001630:	edd3 6a00 	vldr	s13, [r3]
  	  if(debug_mode){
 8001634:	4b40      	ldr	r3, [pc, #256]	; (8001738 <main+0x9a0>)
 8001636:	781b      	ldrb	r3, [r3, #0]
 8001638:	f003 09ff 	and.w	r9, r3, #255	; 0xff
 800163c:	bb0b      	cbnz	r3, 8001682 <main+0x8ea>
  	  }else if(counting_mode){
 800163e:	9b05      	ldr	r3, [sp, #20]
	  DA = MA_avg/MA_min_val;
 8001640:	eeb8 6a46 	vcvt.f32.u32	s12, s12
  	  DV = EF_avg/EF_min_val;
 8001644:	eef8 6a66 	vcvt.f32.u32	s13, s13
  	  }else if(counting_mode){
 8001648:	781a      	ldrb	r2, [r3, #0]
	  DA = MA_avg/MA_min_val;
 800164a:	ee85 ba06 	vdiv.f32	s22, s10, s12
  	  }else if(counting_mode){
 800164e:	f002 03ff 	and.w	r3, r2, #255	; 0xff
  	  DV = EF_avg/EF_min_val;
 8001652:	eec5 baa6 	vdiv.f32	s23, s11, s13
  	  DF = MF_max_val - MF_avg;
 8001656:	eef8 7a67 	vcvt.f32.u32	s15, s15
  	  }else if(counting_mode){
 800165a:	2a00      	cmp	r2, #0
 800165c:	d133      	bne.n	80016c6 <main+0x92e>
	  }else if(cal_mode){
 800165e:	9a06      	ldr	r2, [sp, #24]
 8001660:	7812      	ldrb	r2, [r2, #0]
 8001662:	b172      	cbz	r2, 8001682 <main+0x8ea>
		  if(j == 0){
 8001664:	4a35      	ldr	r2, [pc, #212]	; (800173c <main+0x9a4>)
 8001666:	7812      	ldrb	r2, [r2, #0]
 8001668:	b992      	cbnz	r2, 8001690 <main+0x8f8>
			  sum = 0;
 800166a:	4a35      	ldr	r2, [pc, #212]	; (8001740 <main+0x9a8>)
 800166c:	2300      	movs	r3, #0
 800166e:	6013      	str	r3, [r2, #0]
		  if(i == 9){
 8001670:	7823      	ldrb	r3, [r4, #0]
 8001672:	2b09      	cmp	r3, #9
 8001674:	d105      	bne.n	8001682 <main+0x8ea>
			  counting_mode = 1;
 8001676:	9a05      	ldr	r2, [sp, #20]
 8001678:	2301      	movs	r3, #1
 800167a:	7013      	strb	r3, [r2, #0]
			  cal_mode = 0;
 800167c:	9a06      	ldr	r2, [sp, #24]
 800167e:	2300      	movs	r3, #0
 8001680:	7013      	strb	r3, [r2, #0]
  	HAL_TIM_Base_Start_IT(&htim10);
 8001682:	482b      	ldr	r0, [pc, #172]	; (8001730 <main+0x998>)
 8001684:	f001 fdb6 	bl	80031f4 <HAL_TIM_Base_Start_IT>
  	HAL_TIM_Base_Start_IT(&htim11);
 8001688:	482a      	ldr	r0, [pc, #168]	; (8001734 <main+0x99c>)
 800168a:	f001 fdb3 	bl	80031f4 <HAL_TIM_Base_Start_IT>
	  while(!coin_inserted){
 800168e:	e6fc      	b.n	800148a <main+0x6f2>
		  }else if(j < 5){
 8001690:	2a04      	cmp	r2, #4
 8001692:	f200 80f2 	bhi.w	800187a <main+0xae2>
			  sum_DV += DV;
 8001696:	4b2b      	ldr	r3, [pc, #172]	; (8001744 <main+0x9ac>)
			  sum_DF += DF;
 8001698:	4a2b      	ldr	r2, [pc, #172]	; (8001748 <main+0x9b0>)
			  sum_DA += DA;
 800169a:	492c      	ldr	r1, [pc, #176]	; (800174c <main+0x9b4>)
			  sum_DV += DV;
 800169c:	edd3 5a00 	vldr	s11, [r3]
			  sum_DF += DF;
 80016a0:	ed92 6a00 	vldr	s12, [r2]
			  sum_DA += DA;
 80016a4:	edd1 6a00 	vldr	s13, [r1]
  	  DF = MF_max_val - MF_avg;
 80016a8:	ee77 7ac7 	vsub.f32	s15, s15, s14
			  sum_DV += DV;
 80016ac:	ee75 baab 	vadd.f32	s23, s11, s23
			  sum_DF += DF;
 80016b0:	ee36 7a27 	vadd.f32	s14, s12, s15
			  sum_DA += DA;
 80016b4:	ee76 7a8b 	vadd.f32	s15, s13, s22
			  sum_DV += DV;
 80016b8:	edc3 ba00 	vstr	s23, [r3]
			  sum_DF += DF;
 80016bc:	ed82 7a00 	vstr	s14, [r2]
			  sum_DA += DA;
 80016c0:	edc1 7a00 	vstr	s15, [r1]
 80016c4:	e7d4      	b.n	8001670 <main+0x8d8>
 80016c6:	4a22      	ldr	r2, [pc, #136]	; (8001750 <main+0x9b8>)
	  	  for(i = 0;i<8;i++){
 80016c8:	f884 9000 	strb.w	r9, [r4]
 80016cc:	464b      	mov	r3, r9
 80016ce:	f8cd 9008 	str.w	r9, [sp, #8]
 80016d2:	9407      	str	r4, [sp, #28]
	df_probability = 1 - abs(coin1->df - coin2->df)/coin1->df;
 80016d4:	ee37 aa67 	vsub.f32	s20, s14, s15
	if(da_probability <= 0 || df_probability <= 0  || dv_probability <= 0) return 0;
 80016d8:	eeb7 9a00 	vmov.f32	s18, #112	; 0x3f800000  1.0
	  	  for(i = 0;i<8;i++){
 80016dc:	4691      	mov	r9, r2
 80016de:	461c      	mov	r4, r3
 80016e0:	e041      	b.n	8001766 <main+0x9ce>
 80016e2:	bf00      	nop
 80016e4:	20000004 	.word	0x20000004
 80016e8:	3f666666 	.word	0x3f666666
 80016ec:	200000cc 	.word	0x200000cc
 80016f0:	20000000 	.word	0x20000000
 80016f4:	2000008c 	.word	0x2000008c
 80016f8:	200000fb 	.word	0x200000fb
 80016fc:	00000000 	.word	0x00000000
 8001700:	20000098 	.word	0x20000098
 8001704:	20000094 	.word	0x20000094
 8001708:	20000088 	.word	0x20000088
 800170c:	20000064 	.word	0x20000064
 8001710:	20000060 	.word	0x20000060
 8001714:	200000f0 	.word	0x200000f0
 8001718:	200000f4 	.word	0x200000f4
 800171c:	200000d0 	.word	0x200000d0
 8001720:	200000c8 	.word	0x200000c8
 8001724:	200000fa 	.word	0x200000fa
 8001728:	200000fd 	.word	0x200000fd
 800172c:	200000fc 	.word	0x200000fc
 8001730:	2000019c 	.word	0x2000019c
 8001734:	200001e4 	.word	0x200001e4
 8001738:	20000028 	.word	0x20000028
 800173c:	20000305 	.word	0x20000305
 8001740:	200003ac 	.word	0x200003ac
 8001744:	200003b8 	.word	0x200003b8
 8001748:	200003b4 	.word	0x200003b4
 800174c:	200003b0 	.word	0x200003b0
 8001750:	20000308 	.word	0x20000308
 8001754:	40012000 	.word	0x40012000
 8001758:	3401      	adds	r4, #1
 800175a:	b2e4      	uxtb	r4, r4
 800175c:	2c08      	cmp	r4, #8
 800175e:	f109 0914 	add.w	r9, r9, #20
 8001762:	f000 80c3 	beq.w	80018ec <main+0xb54>
	da_probability = 1 - abs(coin1->da - coin2->da)/coin1->da;
 8001766:	ed99 8a03 	vldr	s16, [r9, #12]
 800176a:	ee78 7a4b 	vsub.f32	s15, s16, s22
 800176e:	ee17 0a90 	vmov	r0, s15
 8001772:	f7fe fe95 	bl	80004a0 <__aeabi_f2d>
 8001776:	ec41 0b10 	vmov	d0, r0, r1
 800177a:	f001 ff25 	bl	80035c8 <abs>
 800177e:	ee07 0a90 	vmov	s15, r0
 8001782:	eef8 7ae7 	vcvt.f32.s32	s15, s15
 8001786:	eec7 aa88 	vdiv.f32	s21, s15, s16
	if(da_probability <= 0 || df_probability <= 0  || dv_probability <= 0) return 0;
 800178a:	eef4 aac9 	vcmpe.f32	s21, s18
 800178e:	eef1 fa10 	vmrs	APSR_nzcv, fpscr
 8001792:	dae1      	bge.n	8001758 <main+0x9c0>
	df_probability = 1 - abs(coin1->df - coin2->df)/coin1->df;
 8001794:	ed99 ca02 	vldr	s24, [r9, #8]
 8001798:	ee7a 7a0c 	vadd.f32	s15, s20, s24
 800179c:	ee17 0a90 	vmov	r0, s15
 80017a0:	f7fe fe7e 	bl	80004a0 <__aeabi_f2d>
 80017a4:	ec41 0b10 	vmov	d0, r0, r1
 80017a8:	f001 ff0e 	bl	80035c8 <abs>
 80017ac:	ee07 0a90 	vmov	s15, r0
 80017b0:	eef8 7ae7 	vcvt.f32.s32	s15, s15
 80017b4:	ee87 8a8c 	vdiv.f32	s16, s15, s24
	if(da_probability <= 0 || df_probability <= 0  || dv_probability <= 0) return 0;
 80017b8:	eeb4 8ac9 	vcmpe.f32	s16, s18
 80017bc:	eef1 fa10 	vmrs	APSR_nzcv, fpscr
 80017c0:	daca      	bge.n	8001758 <main+0x9c0>
	dv_probability = 1 - abs(coin1->dv - coin2->dv)/coin1->dv;
 80017c2:	ed99 ca04 	vldr	s24, [r9, #16]
 80017c6:	ee7c 7a6b 	vsub.f32	s15, s24, s23
	da_probability = 1 - abs(coin1->da - coin2->da)/coin1->da;
 80017ca:	ee79 aa6a 	vsub.f32	s21, s18, s21
	dv_probability = 1 - abs(coin1->dv - coin2->dv)/coin1->dv;
 80017ce:	ee17 0a90 	vmov	r0, s15
 80017d2:	f7fe fe65 	bl	80004a0 <__aeabi_f2d>
 80017d6:	ec41 0b10 	vmov	d0, r0, r1
 80017da:	f001 fef5 	bl	80035c8 <abs>
 80017de:	ee07 0a90 	vmov	s15, r0
 80017e2:	eeb8 7ae7 	vcvt.f32.s32	s14, s15
	  			j++;
 80017e6:	9b02      	ldr	r3, [sp, #8]
	dv_probability = 1 - abs(coin1->dv - coin2->dv)/coin1->dv;
 80017e8:	eec7 6a0c 	vdiv.f32	s13, s14, s24
	  			j++;
 80017ec:	3301      	adds	r3, #1
	df_probability = 1 - abs(coin1->df - coin2->df)/coin1->df;
 80017ee:	ee79 7a48 	vsub.f32	s15, s18, s16
	if(da_probability <= 0 || df_probability <= 0  || dv_probability <= 0) return 0;
 80017f2:	eef4 6ac9 	vcmpe.f32	s13, s18
 80017f6:	eef1 fa10 	vmrs	APSR_nzcv, fpscr
	dv_probability = 1 - abs(coin1->dv - coin2->dv)/coin1->dv;
 80017fa:	ee39 6a66 	vsub.f32	s12, s18, s13
	if(da_probability <= 0 || df_probability <= 0  || dv_probability <= 0) return 0;
 80017fe:	daab      	bge.n	8001758 <main+0x9c0>
	return da_probability * MAWeight + df_probability * MFWeight + dv_probability * EFWeight;
 8001800:	4a57      	ldr	r2, [pc, #348]	; (8001960 <main+0xbc8>)
 8001802:	edd2 6a00 	vldr	s13, [r2]
 8001806:	4a57      	ldr	r2, [pc, #348]	; (8001964 <main+0xbcc>)
 8001808:	edd2 5a00 	vldr	s11, [r2]
 800180c:	4a56      	ldr	r2, [pc, #344]	; (8001968 <main+0xbd0>)
 800180e:	ee67 7aa5 	vmul.f32	s15, s15, s11
 8001812:	ed92 7a00 	vldr	s14, [r2]
 8001816:	eeea 7aa6 	vfma.f32	s15, s21, s13
 800181a:	eee6 7a07 	vfma.f32	s15, s12, s14
	  		if(probability_match(&savedCoins[i], &current_coin) >= criticalCertainty){
 800181e:	eef4 7ae9 	vcmpe.f32	s15, s19
 8001822:	eef1 fa10 	vmrs	APSR_nzcv, fpscr
 8001826:	db97      	blt.n	8001758 <main+0x9c0>
	  			j++;
 8001828:	b2db      	uxtb	r3, r3
	  		if(j > 1)break;
 800182a:	2b02      	cmp	r3, #2
	  			current_coin.value = savedCoins[i].value;
 800182c:	edd9 8a01 	vldr	s17, [r9, #4]
	  			j++;
 8001830:	9302      	str	r3, [sp, #8]
	  		if(j > 1)break;
 8001832:	d191      	bne.n	8001758 <main+0x9c0>
 8001834:	4623      	mov	r3, r4
 8001836:	4a4d      	ldr	r2, [pc, #308]	; (800196c <main+0xbd4>)
 8001838:	9c07      	ldr	r4, [sp, #28]
 800183a:	f8dd 9008 	ldr.w	r9, [sp, #8]
 800183e:	f882 9000 	strb.w	r9, [r2]
 8001842:	7023      	strb	r3, [r4, #0]
	  		HAL_Delay(1000);
 8001844:	f44f 707a 	mov.w	r0, #1000	; 0x3e8
 8001848:	f000 fb36 	bl	8001eb8 <HAL_Delay>
 800184c:	e072      	b.n	8001934 <main+0xb9c>
	for(i=0;i<8;i++){
 800184e:	4c48      	ldr	r4, [pc, #288]	; (8001970 <main+0xbd8>)
 8001850:	4b48      	ldr	r3, [pc, #288]	; (8001974 <main+0xbdc>)
 8001852:	7027      	strb	r7, [r4, #0]
 8001854:	9303      	str	r3, [sp, #12]
 8001856:	4639      	mov	r1, r7
		Read_coin(&savedCoins[i], i);
 8001858:	b208      	sxth	r0, r1
 800185a:	9b03      	ldr	r3, [sp, #12]
 800185c:	eb00 0080 	add.w	r0, r0, r0, lsl #2
 8001860:	eb03 0080 	add.w	r0, r3, r0, lsl #2
 8001864:	f7ff f8aa 	bl	80009bc <Read_coin>
	for(i=0;i<8;i++){
 8001868:	7821      	ldrb	r1, [r4, #0]
 800186a:	3101      	adds	r1, #1
 800186c:	b2c9      	uxtb	r1, r1
 800186e:	2907      	cmp	r1, #7
 8001870:	7021      	strb	r1, [r4, #0]
 8001872:	d9f1      	bls.n	8001858 <main+0xac0>
 8001874:	4b40      	ldr	r3, [pc, #256]	; (8001978 <main+0xbe0>)
 8001876:	9304      	str	r3, [sp, #16]
 8001878:	e472      	b.n	8001160 <main+0x3c8>
 800187a:	9302      	str	r3, [sp, #8]
			  sum_DV /= 5;
 800187c:	4b3f      	ldr	r3, [pc, #252]	; (800197c <main+0xbe4>)
 800187e:	ed9f 6a40 	vldr	s12, [pc, #256]	; 8001980 <main+0xbe8>
 8001882:	edd3 7a00 	vldr	s15, [r3]
			  sum_DF /= 5;
 8001886:	4a3f      	ldr	r2, [pc, #252]	; (8001984 <main+0xbec>)
			  sum_DA/= 5;
 8001888:	493f      	ldr	r1, [pc, #252]	; (8001988 <main+0xbf0>)
			  sum_DF /= 5;
 800188a:	ed92 7a00 	vldr	s14, [r2]
			  sum_DA/= 5;
 800188e:	edd1 6a00 	vldr	s13, [r1]
			  savedCoins[i].da = sum_DA;
 8001892:	7820      	ldrb	r0, [r4, #0]
			  sum_DV /= 5;
 8001894:	ee67 7a86 	vmul.f32	s15, s15, s12
			  sum_DF /= 5;
 8001898:	ee27 7a06 	vmul.f32	s14, s14, s12
			  sum_DA/= 5;
 800189c:	ee66 6a86 	vmul.f32	s13, s13, s12
			  sum_DV /= 5;
 80018a0:	edc3 7a00 	vstr	s15, [r3]
			  savedCoins[i].value = coin_values[i];
 80018a4:	9b04      	ldr	r3, [sp, #16]
			  sum_DF /= 5;
 80018a6:	ed82 7a00 	vstr	s14, [r2]
			  sum_DA/= 5;
 80018aa:	edc1 6a00 	vstr	s13, [r1]
			  savedCoins[i].value = coin_values[i];
 80018ae:	eb03 0280 	add.w	r2, r3, r0, lsl #2
			  savedCoins[i].da = sum_DA;
 80018b2:	2114      	movs	r1, #20
			  Write_coin((uint8_t *)(&savedCoins[i]), savedCoins[i].coinID);
 80018b4:	9b03      	ldr	r3, [sp, #12]
			  savedCoins[i].value = coin_values[i];
 80018b6:	f8d2 c000 	ldr.w	ip, [r2]
			  savedCoins[i].da = sum_DA;
 80018ba:	fb00 f101 	mul.w	r1, r0, r1
 80018be:	185a      	adds	r2, r3, r1
			  Write_coin((uint8_t *)(&savedCoins[i]), savedCoins[i].coinID);
 80018c0:	eb00 0080 	add.w	r0, r0, r0, lsl #2
 80018c4:	5c59      	ldrb	r1, [r3, r1]
			  savedCoins[i].value = coin_values[i];
 80018c6:	f8c2 c004 	str.w	ip, [r2, #4]
			  Write_coin((uint8_t *)(&savedCoins[i]), savedCoins[i].coinID);
 80018ca:	eb03 0080 	add.w	r0, r3, r0, lsl #2
			  savedCoins[i].da = sum_DA;
 80018ce:	edc2 6a03 	vstr	s13, [r2, #12]
			  savedCoins[i].df = sum_DF;
 80018d2:	ed82 7a02 	vstr	s14, [r2, #8]
			  savedCoins[i].dv = sum_DV;
 80018d6:	edc2 7a04 	vstr	s15, [r2, #16]
			  Write_coin((uint8_t *)(&savedCoins[i]), savedCoins[i].coinID);
 80018da:	f7ff f84d 	bl	8000978 <Write_coin>
			  j = 0;
 80018de:	4a23      	ldr	r2, [pc, #140]	; (800196c <main+0xbd4>)
 80018e0:	9b02      	ldr	r3, [sp, #8]
 80018e2:	7013      	strb	r3, [r2, #0]
			  i++;
 80018e4:	7823      	ldrb	r3, [r4, #0]
 80018e6:	3301      	adds	r3, #1
 80018e8:	7023      	strb	r3, [r4, #0]
 80018ea:	e6c1      	b.n	8001670 <main+0x8d8>
 80018ec:	4623      	mov	r3, r4
 80018ee:	9c07      	ldr	r4, [sp, #28]
 80018f0:	f8dd 9008 	ldr.w	r9, [sp, #8]
 80018f4:	7023      	strb	r3, [r4, #0]
 80018f6:	4b1d      	ldr	r3, [pc, #116]	; (800196c <main+0xbd4>)
	  	  if(j == 1){
 80018f8:	f1b9 0f01 	cmp.w	r9, #1
 80018fc:	f883 9000 	strb.w	r9, [r3]
 8001900:	d1a0      	bne.n	8001844 <main+0xaac>
	  		sum += current_coin.value;
 8001902:	4b22      	ldr	r3, [pc, #136]	; (800198c <main+0xbf4>)
 8001904:	ed93 0a00 	vldr	s0, [r3]
 8001908:	ee38 0a80 	vadd.f32	s0, s17, s0
 800190c:	ed83 0a00 	vstr	s0, [r3]
	  		display_total_update(sum);
 8001910:	f7ff f950 	bl	8000bb4 <display_total_update>
	servo2_timer = (ang*120)+7440;
 8001914:	4b1e      	ldr	r3, [pc, #120]	; (8001990 <main+0xbf8>)
 8001916:	f641 5110 	movw	r1, #7440	; 0x1d10
	  		HAL_Delay(1000);
 800191a:	f44f 707a 	mov.w	r0, #1000	; 0x3e8
	servo2_timer = (ang*120)+7440;
 800191e:	8019      	strh	r1, [r3, #0]
	  		HAL_Delay(1000);
 8001920:	f000 faca 	bl	8001eb8 <HAL_Delay>
	  		HAL_Delay(1000);
 8001924:	f44f 707a 	mov.w	r0, #1000	; 0x3e8
 8001928:	f000 fac6 	bl	8001eb8 <HAL_Delay>
	servo2_timer = (ang*120)+7440;
 800192c:	4a18      	ldr	r2, [pc, #96]	; (8001990 <main+0xbf8>)
 800192e:	f244 7340 	movw	r3, #18240	; 0x4740
 8001932:	8013      	strh	r3, [r2, #0]
	MA_min_val = 4095;
 8001934:	4917      	ldr	r1, [pc, #92]	; (8001994 <main+0xbfc>)
 8001936:	f640 72ff 	movw	r2, #4095	; 0xfff
 800193a:	600a      	str	r2, [r1, #0]
	MF_max_val = 0;
 800193c:	4a16      	ldr	r2, [pc, #88]	; (8001998 <main+0xc00>)
	EF_min_val = 65535;
 800193e:	4917      	ldr	r1, [pc, #92]	; (800199c <main+0xc04>)
	MF_max_val = 0;
 8001940:	2300      	movs	r3, #0
 8001942:	6013      	str	r3, [r2, #0]
	EF_min_val = 65535;
 8001944:	f64f 72ff 	movw	r2, #65535	; 0xffff
 8001948:	600a      	str	r2, [r1, #0]
	EF_rdy = 0;
 800194a:	4a15      	ldr	r2, [pc, #84]	; (80019a0 <main+0xc08>)
	MF_rdy = 0;
 800194c:	7033      	strb	r3, [r6, #0]
	EF_rdy = 0;
 800194e:	7013      	strb	r3, [r2, #0]
	ADC1->SR &= ~0x10;
 8001950:	f8d8 3000 	ldr.w	r3, [r8]
 8001954:	f023 0310 	bic.w	r3, r3, #16
 8001958:	f8c8 3000 	str.w	r3, [r8]
}
 800195c:	e691      	b.n	8001682 <main+0x8ea>
 800195e:	bf00      	nop
 8001960:	20000090 	.word	0x20000090
 8001964:	200000c4 	.word	0x200000c4
 8001968:	2000005c 	.word	0x2000005c
 800196c:	20000305 	.word	0x20000305
 8001970:	20000304 	.word	0x20000304
 8001974:	20000308 	.word	0x20000308
 8001978:	20000008 	.word	0x20000008
 800197c:	200003b8 	.word	0x200003b8
 8001980:	3e4ccccd 	.word	0x3e4ccccd
 8001984:	200003b4 	.word	0x200003b4
 8001988:	200003b0 	.word	0x200003b0
 800198c:	200003ac 	.word	0x200003ac
 8001990:	2000002c 	.word	0x2000002c
 8001994:	20000004 	.word	0x20000004
 8001998:	200000cc 	.word	0x200000cc
 800199c:	20000000 	.word	0x20000000
 80019a0:	2000008c 	.word	0x2000008c

080019a4 <HAL_TIM_PeriodElapsedCallback>:
	  if (htim == &htim2) {
 80019a4:	4b1f      	ldr	r3, [pc, #124]	; (8001a24 <HAL_TIM_PeriodElapsedCallback+0x80>)
 80019a6:	4298      	cmp	r0, r3
{
 80019a8:	b510      	push	{r4, lr}
	  if (htim == &htim2) {
 80019aa:	d012      	beq.n	80019d2 <HAL_TIM_PeriodElapsedCallback+0x2e>
	  if(htim == &htim5){
 80019ac:	4b1e      	ldr	r3, [pc, #120]	; (8001a28 <HAL_TIM_PeriodElapsedCallback+0x84>)
 80019ae:	4298      	cmp	r0, r3
 80019b0:	d000      	beq.n	80019b4 <HAL_TIM_PeriodElapsedCallback+0x10>
}
 80019b2:	bd10      	pop	{r4, pc}
	    if(servo2_state == 1){
 80019b4:	4c1d      	ldr	r4, [pc, #116]	; (8001a2c <HAL_TIM_PeriodElapsedCallback+0x88>)
	      HAL_GPIO_WritePin(GPIOC, GPIO_PIN_2, 0);
 80019b6:	481e      	ldr	r0, [pc, #120]	; (8001a30 <HAL_TIM_PeriodElapsedCallback+0x8c>)
	    if(servo2_state == 1){
 80019b8:	7823      	ldrb	r3, [r4, #0]
 80019ba:	2b01      	cmp	r3, #1
 80019bc:	d026      	beq.n	8001a0c <HAL_TIM_PeriodElapsedCallback+0x68>
	      HAL_GPIO_WritePin(GPIOC, GPIO_PIN_2, 1);
 80019be:	2201      	movs	r2, #1
 80019c0:	2104      	movs	r1, #4
 80019c2:	f000 fe69 	bl	8002698 <HAL_GPIO_WritePin>
	      TIM5->ARR = 240000;
 80019c6:	4b1b      	ldr	r3, [pc, #108]	; (8001a34 <HAL_TIM_PeriodElapsedCallback+0x90>)
 80019c8:	4a1b      	ldr	r2, [pc, #108]	; (8001a38 <HAL_TIM_PeriodElapsedCallback+0x94>)
	      servo2_state = 1;
 80019ca:	2101      	movs	r1, #1
 80019cc:	7021      	strb	r1, [r4, #0]
	      TIM5->ARR = 240000;
 80019ce:	62da      	str	r2, [r3, #44]	; 0x2c
}
 80019d0:	bd10      	pop	{r4, pc}
	    if(servo1_state == 1){
 80019d2:	4c1a      	ldr	r4, [pc, #104]	; (8001a3c <HAL_TIM_PeriodElapsedCallback+0x98>)
	      HAL_GPIO_WritePin(GPIOC, GPIO_PIN_1, 0);
 80019d4:	4816      	ldr	r0, [pc, #88]	; (8001a30 <HAL_TIM_PeriodElapsedCallback+0x8c>)
	    if(servo1_state == 1){
 80019d6:	7823      	ldrb	r3, [r4, #0]
 80019d8:	2b01      	cmp	r3, #1
 80019da:	d00a      	beq.n	80019f2 <HAL_TIM_PeriodElapsedCallback+0x4e>
	      HAL_GPIO_WritePin(GPIOC, GPIO_PIN_1, 1);
 80019dc:	2201      	movs	r2, #1
 80019de:	2102      	movs	r1, #2
 80019e0:	f000 fe5a 	bl	8002698 <HAL_GPIO_WritePin>
	      TIM2->ARR = 240000;
 80019e4:	f04f 4380 	mov.w	r3, #1073741824	; 0x40000000
	      servo1_state = 1;
 80019e8:	2101      	movs	r1, #1
	      TIM2->ARR = 240000;
 80019ea:	4a13      	ldr	r2, [pc, #76]	; (8001a38 <HAL_TIM_PeriodElapsedCallback+0x94>)
	      servo1_state = 1;
 80019ec:	7021      	strb	r1, [r4, #0]
	      TIM2->ARR = 240000;
 80019ee:	62da      	str	r2, [r3, #44]	; 0x2c
}
 80019f0:	bd10      	pop	{r4, pc}
	      HAL_GPIO_WritePin(GPIOC, GPIO_PIN_1, 0);
 80019f2:	2200      	movs	r2, #0
 80019f4:	2102      	movs	r1, #2
 80019f6:	f000 fe4f 	bl	8002698 <HAL_GPIO_WritePin>
	      servo1_state = 0;
 80019fa:	2200      	movs	r2, #0
	      TIM2->ARR = servo1_timer;
 80019fc:	4b10      	ldr	r3, [pc, #64]	; (8001a40 <HAL_TIM_PeriodElapsedCallback+0x9c>)
	      servo1_state = 0;
 80019fe:	7022      	strb	r2, [r4, #0]
	      TIM2->ARR = servo1_timer;
 8001a00:	881b      	ldrh	r3, [r3, #0]
 8001a02:	f04f 4280 	mov.w	r2, #1073741824	; 0x40000000
 8001a06:	b29b      	uxth	r3, r3
 8001a08:	62d3      	str	r3, [r2, #44]	; 0x2c
}
 8001a0a:	bd10      	pop	{r4, pc}
	      HAL_GPIO_WritePin(GPIOC, GPIO_PIN_2, 0);
 8001a0c:	2200      	movs	r2, #0
 8001a0e:	2104      	movs	r1, #4
 8001a10:	f000 fe42 	bl	8002698 <HAL_GPIO_WritePin>
	      servo2_state = 0;
 8001a14:	2200      	movs	r2, #0
	      TIM5->ARR = servo2_timer;
 8001a16:	4b0b      	ldr	r3, [pc, #44]	; (8001a44 <HAL_TIM_PeriodElapsedCallback+0xa0>)
	      servo2_state = 0;
 8001a18:	7022      	strb	r2, [r4, #0]
	      TIM5->ARR = servo2_timer;
 8001a1a:	881b      	ldrh	r3, [r3, #0]
 8001a1c:	4a05      	ldr	r2, [pc, #20]	; (8001a34 <HAL_TIM_PeriodElapsedCallback+0x90>)
 8001a1e:	b29b      	uxth	r3, r3
 8001a20:	62d3      	str	r3, [r2, #44]	; 0x2c
}
 8001a22:	bd10      	pop	{r4, pc}
 8001a24:	2000022c 	.word	0x2000022c
 8001a28:	20000274 	.word	0x20000274
 8001a2c:	200003a9 	.word	0x200003a9
 8001a30:	40020800 	.word	0x40020800
 8001a34:	40000c00 	.word	0x40000c00
 8001a38:	0003a980 	.word	0x0003a980
 8001a3c:	200003a8 	.word	0x200003a8
 8001a40:	2000002a 	.word	0x2000002a
 8001a44:	2000002c 	.word	0x2000002c

08001a48 <HAL_GPIO_EXTI_Callback>:
  if(GPIO_Pin == GPIO_PIN_6) {
 8001a48:	2840      	cmp	r0, #64	; 0x40
 8001a4a:	d024      	beq.n	8001a96 <HAL_GPIO_EXTI_Callback+0x4e>
  if(GPIO_Pin == GPIO_PIN_3) {
 8001a4c:	2808      	cmp	r0, #8
 8001a4e:	d10d      	bne.n	8001a6c <HAL_GPIO_EXTI_Callback+0x24>
	  EF_new_val = TIM11->CNT;
 8001a50:	4b1d      	ldr	r3, [pc, #116]	; (8001ac8 <HAL_GPIO_EXTI_Callback+0x80>)
 8001a52:	491e      	ldr	r1, [pc, #120]	; (8001acc <HAL_GPIO_EXTI_Callback+0x84>)
 8001a54:	6a58      	ldr	r0, [r3, #36]	; 0x24
	  EF_rdy = 1;
 8001a56:	4a1e      	ldr	r2, [pc, #120]	; (8001ad0 <HAL_GPIO_EXTI_Callback+0x88>)
{
 8001a58:	b410      	push	{r4}
	  EF_new_val = TIM11->CNT;
 8001a5a:	6008      	str	r0, [r1, #0]
	  TIM11->CNT &= 0x00;
 8001a5c:	2000      	movs	r0, #0
	  EF_rdy = 1;
 8001a5e:	2101      	movs	r1, #1
	  TIM11->CNT &= 0x00;
 8001a60:	6a5c      	ldr	r4, [r3, #36]	; 0x24
 8001a62:	6258      	str	r0, [r3, #36]	; 0x24
	  EF_rdy = 1;
 8001a64:	7011      	strb	r1, [r2, #0]
}
 8001a66:	f85d 4b04 	ldr.w	r4, [sp], #4
 8001a6a:	4770      	bx	lr
  if(GPIO_Pin == GPIO_PIN_0){
 8001a6c:	2801      	cmp	r0, #1
 8001a6e:	d10a      	bne.n	8001a86 <HAL_GPIO_EXTI_Callback+0x3e>
	  if(!debug_mode){
 8001a70:	4b18      	ldr	r3, [pc, #96]	; (8001ad4 <HAL_GPIO_EXTI_Callback+0x8c>)
 8001a72:	781b      	ldrb	r3, [r3, #0]
 8001a74:	f003 02ff 	and.w	r2, r3, #255	; 0xff
 8001a78:	b923      	cbnz	r3, 8001a84 <HAL_GPIO_EXTI_Callback+0x3c>
		  cal_mode = 1;
 8001a7a:	4917      	ldr	r1, [pc, #92]	; (8001ad8 <HAL_GPIO_EXTI_Callback+0x90>)
		  counting_mode = 0;
 8001a7c:	4b17      	ldr	r3, [pc, #92]	; (8001adc <HAL_GPIO_EXTI_Callback+0x94>)
		  cal_mode = 1;
 8001a7e:	7008      	strb	r0, [r1, #0]
		  counting_mode = 0;
 8001a80:	701a      	strb	r2, [r3, #0]
 8001a82:	4770      	bx	lr
 8001a84:	4770      	bx	lr
  if(GPIO_Pin == GPIO_PIN_7){
 8001a86:	2880      	cmp	r0, #128	; 0x80
 8001a88:	d115      	bne.n	8001ab6 <HAL_GPIO_EXTI_Callback+0x6e>
  	  coin_inserted = 1;
 8001a8a:	4915      	ldr	r1, [pc, #84]	; (8001ae0 <HAL_GPIO_EXTI_Callback+0x98>)
  	  coin_still_present = 1;
 8001a8c:	4a15      	ldr	r2, [pc, #84]	; (8001ae4 <HAL_GPIO_EXTI_Callback+0x9c>)
  	  coin_inserted = 1;
 8001a8e:	2301      	movs	r3, #1
 8001a90:	700b      	strb	r3, [r1, #0]
  	  coin_still_present = 1;
 8001a92:	7013      	strb	r3, [r2, #0]
 8001a94:	4770      	bx	lr
	  MF_rdy = 1;
 8001a96:	4a14      	ldr	r2, [pc, #80]	; (8001ae8 <HAL_GPIO_EXTI_Callback+0xa0>)
	  MF_new_val = TIM10->CNT;
 8001a98:	4b14      	ldr	r3, [pc, #80]	; (8001aec <HAL_GPIO_EXTI_Callback+0xa4>)
	  MF_rdy = 1;
 8001a9a:	2101      	movs	r1, #1
 8001a9c:	7011      	strb	r1, [r2, #0]
	  MF_new_val = TIM10->CNT;
 8001a9e:	4a14      	ldr	r2, [pc, #80]	; (8001af0 <HAL_GPIO_EXTI_Callback+0xa8>)
 8001aa0:	6a59      	ldr	r1, [r3, #36]	; 0x24
 8001aa2:	6011      	str	r1, [r2, #0]
  	  ADC1->CR2 |= 1 << 30; //start ADC conversion
 8001aa4:	4a13      	ldr	r2, [pc, #76]	; (8001af4 <HAL_GPIO_EXTI_Callback+0xac>)
  	  TIM10->CNT &= 0x00; //reset timer counter
 8001aa6:	6a58      	ldr	r0, [r3, #36]	; 0x24
 8001aa8:	2100      	movs	r1, #0
 8001aaa:	6259      	str	r1, [r3, #36]	; 0x24
  	  ADC1->CR2 |= 1 << 30; //start ADC conversion
 8001aac:	6893      	ldr	r3, [r2, #8]
 8001aae:	f043 4380 	orr.w	r3, r3, #1073741824	; 0x40000000
 8001ab2:	6093      	str	r3, [r2, #8]
 8001ab4:	4770      	bx	lr
  if(GPIO_Pin == GPIO_PIN_9){
 8001ab6:	f5b0 7f00 	cmp.w	r0, #512	; 0x200
 8001aba:	d103      	bne.n	8001ac4 <HAL_GPIO_EXTI_Callback+0x7c>
	  coin_still_present = 0;
 8001abc:	4b09      	ldr	r3, [pc, #36]	; (8001ae4 <HAL_GPIO_EXTI_Callback+0x9c>)
 8001abe:	2200      	movs	r2, #0
 8001ac0:	701a      	strb	r2, [r3, #0]
}
 8001ac2:	4770      	bx	lr
 8001ac4:	4770      	bx	lr
 8001ac6:	bf00      	nop
 8001ac8:	40014800 	.word	0x40014800
 8001acc:	20000088 	.word	0x20000088
 8001ad0:	2000008c 	.word	0x2000008c
 8001ad4:	20000028 	.word	0x20000028
 8001ad8:	200000fa 	.word	0x200000fa
 8001adc:	200000fd 	.word	0x200000fd
 8001ae0:	200000fb 	.word	0x200000fb
 8001ae4:	200000fc 	.word	0x200000fc
 8001ae8:	200000f8 	.word	0x200000f8
 8001aec:	40014400 	.word	0x40014400
 8001af0:	200000f4 	.word	0x200000f4
 8001af4:	40012000 	.word	0x40012000

08001af8 <HAL_MspInit>:
/* USER CODE END 0 */
/**
  * Initializes the Global MSP.
  */
void HAL_MspInit(void)
{
 8001af8:	b082      	sub	sp, #8
  /* USER CODE BEGIN MspInit 0 */

  /* USER CODE END MspInit 0 */

  __HAL_RCC_SYSCFG_CLK_ENABLE();
 8001afa:	4b0c      	ldr	r3, [pc, #48]	; (8001b2c <HAL_MspInit+0x34>)
 8001afc:	2100      	movs	r1, #0
 8001afe:	9100      	str	r1, [sp, #0]
 8001b00:	6c5a      	ldr	r2, [r3, #68]	; 0x44
 8001b02:	f442 4280 	orr.w	r2, r2, #16384	; 0x4000
 8001b06:	645a      	str	r2, [r3, #68]	; 0x44
 8001b08:	6c5a      	ldr	r2, [r3, #68]	; 0x44
 8001b0a:	f402 4280 	and.w	r2, r2, #16384	; 0x4000
 8001b0e:	9200      	str	r2, [sp, #0]
 8001b10:	9a00      	ldr	r2, [sp, #0]
  __HAL_RCC_PWR_CLK_ENABLE();
 8001b12:	9101      	str	r1, [sp, #4]
 8001b14:	6c1a      	ldr	r2, [r3, #64]	; 0x40
 8001b16:	f042 5280 	orr.w	r2, r2, #268435456	; 0x10000000
 8001b1a:	641a      	str	r2, [r3, #64]	; 0x40
 8001b1c:	6c1b      	ldr	r3, [r3, #64]	; 0x40
 8001b1e:	f003 5380 	and.w	r3, r3, #268435456	; 0x10000000
 8001b22:	9301      	str	r3, [sp, #4]
 8001b24:	9b01      	ldr	r3, [sp, #4]
  /* System interrupt init*/

  /* USER CODE BEGIN MspInit 1 */

  /* USER CODE END MspInit 1 */
}
 8001b26:	b002      	add	sp, #8
 8001b28:	4770      	bx	lr
 8001b2a:	bf00      	nop
 8001b2c:	40023800 	.word	0x40023800

08001b30 <HAL_ADC_MspInit>:
* This function configures the hardware resources used in this example
* @param hadc: ADC handle pointer
* @retval None
*/
void HAL_ADC_MspInit(ADC_HandleTypeDef* hadc)
{
 8001b30:	b500      	push	{lr}
  GPIO_InitTypeDef GPIO_InitStruct = {0};
  if(hadc->Instance==ADC1)
 8001b32:	4a19      	ldr	r2, [pc, #100]	; (8001b98 <HAL_ADC_MspInit+0x68>)
 8001b34:	6801      	ldr	r1, [r0, #0]
{
 8001b36:	b089      	sub	sp, #36	; 0x24
  GPIO_InitTypeDef GPIO_InitStruct = {0};
 8001b38:	2300      	movs	r3, #0
  if(hadc->Instance==ADC1)
 8001b3a:	4291      	cmp	r1, r2
  GPIO_InitTypeDef GPIO_InitStruct = {0};
 8001b3c:	e9cd 3302 	strd	r3, r3, [sp, #8]
 8001b40:	e9cd 3304 	strd	r3, r3, [sp, #16]
 8001b44:	9306      	str	r3, [sp, #24]
  if(hadc->Instance==ADC1)
 8001b46:	d002      	beq.n	8001b4e <HAL_ADC_MspInit+0x1e>
  /* USER CODE BEGIN ADC1_MspInit 1 */

  /* USER CODE END ADC1_MspInit 1 */
  }

}
 8001b48:	b009      	add	sp, #36	; 0x24
 8001b4a:	f85d fb04 	ldr.w	pc, [sp], #4
    __HAL_RCC_ADC1_CLK_ENABLE();
 8001b4e:	f502 328c 	add.w	r2, r2, #71680	; 0x11800
 8001b52:	9300      	str	r3, [sp, #0]
 8001b54:	6c50      	ldr	r0, [r2, #68]	; 0x44
 8001b56:	f440 7080 	orr.w	r0, r0, #256	; 0x100
 8001b5a:	6450      	str	r0, [r2, #68]	; 0x44
 8001b5c:	6c50      	ldr	r0, [r2, #68]	; 0x44
 8001b5e:	f400 7080 	and.w	r0, r0, #256	; 0x100
 8001b62:	9000      	str	r0, [sp, #0]
 8001b64:	9800      	ldr	r0, [sp, #0]
    __HAL_RCC_GPIOA_CLK_ENABLE();
 8001b66:	9301      	str	r3, [sp, #4]
 8001b68:	6b13      	ldr	r3, [r2, #48]	; 0x30
    HAL_GPIO_Init(GPIOA, &GPIO_InitStruct);
 8001b6a:	480c      	ldr	r0, [pc, #48]	; (8001b9c <HAL_ADC_MspInit+0x6c>)
    __HAL_RCC_GPIOA_CLK_ENABLE();
 8001b6c:	f043 0301 	orr.w	r3, r3, #1
 8001b70:	6313      	str	r3, [r2, #48]	; 0x30
 8001b72:	6b13      	ldr	r3, [r2, #48]	; 0x30
    GPIO_InitStruct.Pin = GPIO_PIN_1;
 8001b74:	ed9f 7b06 	vldr	d7, [pc, #24]	; 8001b90 <HAL_ADC_MspInit+0x60>
    __HAL_RCC_GPIOA_CLK_ENABLE();
 8001b78:	f003 0301 	and.w	r3, r3, #1
 8001b7c:	9301      	str	r3, [sp, #4]
    HAL_GPIO_Init(GPIOA, &GPIO_InitStruct);
 8001b7e:	a902      	add	r1, sp, #8
    GPIO_InitStruct.Pin = GPIO_PIN_1;
 8001b80:	ed8d 7b02 	vstr	d7, [sp, #8]
    __HAL_RCC_GPIOA_CLK_ENABLE();
 8001b84:	9b01      	ldr	r3, [sp, #4]
    HAL_GPIO_Init(GPIOA, &GPIO_InitStruct);
 8001b86:	f000 fc95 	bl	80024b4 <HAL_GPIO_Init>
}
 8001b8a:	b009      	add	sp, #36	; 0x24
 8001b8c:	f85d fb04 	ldr.w	pc, [sp], #4
 8001b90:	00000002 	.word	0x00000002
 8001b94:	00000003 	.word	0x00000003
 8001b98:	40012000 	.word	0x40012000
 8001b9c:	40020000 	.word	0x40020000

08001ba0 <HAL_I2C_MspInit>:
* This function configures the hardware resources used in this example
* @param hi2c: I2C handle pointer
* @retval None
*/
void HAL_I2C_MspInit(I2C_HandleTypeDef* hi2c)
{
 8001ba0:	b530      	push	{r4, r5, lr}
  GPIO_InitTypeDef GPIO_InitStruct = {0};
  if(hi2c->Instance==I2C1)
 8001ba2:	4b18      	ldr	r3, [pc, #96]	; (8001c04 <HAL_I2C_MspInit+0x64>)
 8001ba4:	6802      	ldr	r2, [r0, #0]
{
 8001ba6:	b089      	sub	sp, #36	; 0x24
  GPIO_InitTypeDef GPIO_InitStruct = {0};
 8001ba8:	2400      	movs	r4, #0
  if(hi2c->Instance==I2C1)
 8001baa:	429a      	cmp	r2, r3
  GPIO_InitTypeDef GPIO_InitStruct = {0};
 8001bac:	e9cd 4402 	strd	r4, r4, [sp, #8]
 8001bb0:	e9cd 4404 	strd	r4, r4, [sp, #16]
 8001bb4:	9406      	str	r4, [sp, #24]
  if(hi2c->Instance==I2C1)
 8001bb6:	d001      	beq.n	8001bbc <HAL_I2C_MspInit+0x1c>
  /* USER CODE BEGIN I2C1_MspInit 1 */

  /* USER CODE END I2C1_MspInit 1 */
  }

}
 8001bb8:	b009      	add	sp, #36	; 0x24
 8001bba:	bd30      	pop	{r4, r5, pc}
    __HAL_RCC_GPIOB_CLK_ENABLE();
 8001bbc:	4d12      	ldr	r5, [pc, #72]	; (8001c08 <HAL_I2C_MspInit+0x68>)
 8001bbe:	9400      	str	r4, [sp, #0]
 8001bc0:	6b2b      	ldr	r3, [r5, #48]	; 0x30
    HAL_GPIO_Init(GPIOB, &GPIO_InitStruct);
 8001bc2:	4812      	ldr	r0, [pc, #72]	; (8001c0c <HAL_I2C_MspInit+0x6c>)
    __HAL_RCC_GPIOB_CLK_ENABLE();
 8001bc4:	f043 0302 	orr.w	r3, r3, #2
 8001bc8:	632b      	str	r3, [r5, #48]	; 0x30
 8001bca:	6b2b      	ldr	r3, [r5, #48]	; 0x30
 8001bcc:	f003 0302 	and.w	r3, r3, #2
 8001bd0:	9300      	str	r3, [sp, #0]
    GPIO_InitStruct.Pin = GPIO_PIN_6|GPIO_PIN_7;
 8001bd2:	22c0      	movs	r2, #192	; 0xc0
 8001bd4:	2312      	movs	r3, #18
 8001bd6:	e9cd 2302 	strd	r2, r3, [sp, #8]
    GPIO_InitStruct.Speed = GPIO_SPEED_FREQ_VERY_HIGH;
 8001bda:	2303      	movs	r3, #3
 8001bdc:	9305      	str	r3, [sp, #20]
    HAL_GPIO_Init(GPIOB, &GPIO_InitStruct);
 8001bde:	a902      	add	r1, sp, #8
    GPIO_InitStruct.Alternate = GPIO_AF4_I2C1;
 8001be0:	2304      	movs	r3, #4
 8001be2:	9306      	str	r3, [sp, #24]
    __HAL_RCC_GPIOB_CLK_ENABLE();
 8001be4:	9a00      	ldr	r2, [sp, #0]
    HAL_GPIO_Init(GPIOB, &GPIO_InitStruct);
 8001be6:	f000 fc65 	bl	80024b4 <HAL_GPIO_Init>
    __HAL_RCC_I2C1_CLK_ENABLE();
 8001bea:	9401      	str	r4, [sp, #4]
 8001bec:	6c2b      	ldr	r3, [r5, #64]	; 0x40
 8001bee:	f443 1300 	orr.w	r3, r3, #2097152	; 0x200000
 8001bf2:	642b      	str	r3, [r5, #64]	; 0x40
 8001bf4:	6c2b      	ldr	r3, [r5, #64]	; 0x40
 8001bf6:	f403 1300 	and.w	r3, r3, #2097152	; 0x200000
 8001bfa:	9301      	str	r3, [sp, #4]
 8001bfc:	9b01      	ldr	r3, [sp, #4]
}
 8001bfe:	b009      	add	sp, #36	; 0x24
 8001c00:	bd30      	pop	{r4, r5, pc}
 8001c02:	bf00      	nop
 8001c04:	40005400 	.word	0x40005400
 8001c08:	40023800 	.word	0x40023800
 8001c0c:	40020400 	.word	0x40020400

08001c10 <HAL_TIM_Base_MspInit>:
* This function configures the hardware resources used in this example
* @param htim_base: TIM_Base handle pointer
* @retval None
*/
void HAL_TIM_Base_MspInit(TIM_HandleTypeDef* htim_base)
{
 8001c10:	b500      	push	{lr}
  if(htim_base->Instance==TIM2)
 8001c12:	6803      	ldr	r3, [r0, #0]
 8001c14:	f1b3 4f80 	cmp.w	r3, #1073741824	; 0x40000000
{
 8001c18:	b087      	sub	sp, #28
  if(htim_base->Instance==TIM2)
 8001c1a:	d024      	beq.n	8001c66 <HAL_TIM_Base_MspInit+0x56>
    HAL_NVIC_EnableIRQ(TIM2_IRQn);
  /* USER CODE BEGIN TIM2_MspInit 1 */

  /* USER CODE END TIM2_MspInit 1 */
  }
  else if(htim_base->Instance==TIM5)
 8001c1c:	4a3b      	ldr	r2, [pc, #236]	; (8001d0c <HAL_TIM_Base_MspInit+0xfc>)
 8001c1e:	4293      	cmp	r3, r2
 8001c20:	d038      	beq.n	8001c94 <HAL_TIM_Base_MspInit+0x84>
    HAL_NVIC_EnableIRQ(TIM5_IRQn);
  /* USER CODE BEGIN TIM5_MspInit 1 */

  /* USER CODE END TIM5_MspInit 1 */
  }
  else if(htim_base->Instance==TIM9)
 8001c22:	4a3b      	ldr	r2, [pc, #236]	; (8001d10 <HAL_TIM_Base_MspInit+0x100>)
 8001c24:	4293      	cmp	r3, r2
 8001c26:	d05a      	beq.n	8001cde <HAL_TIM_Base_MspInit+0xce>
    HAL_NVIC_EnableIRQ(TIM1_BRK_TIM9_IRQn);
  /* USER CODE BEGIN TIM9_MspInit 1 */

  /* USER CODE END TIM9_MspInit 1 */
  }
  else if(htim_base->Instance==TIM10)
 8001c28:	4a3a      	ldr	r2, [pc, #232]	; (8001d14 <HAL_TIM_Base_MspInit+0x104>)
 8001c2a:	4293      	cmp	r3, r2
 8001c2c:	d005      	beq.n	8001c3a <HAL_TIM_Base_MspInit+0x2a>
    HAL_NVIC_EnableIRQ(TIM1_UP_TIM10_IRQn);
  /* USER CODE BEGIN TIM10_MspInit 1 */

  /* USER CODE END TIM10_MspInit 1 */
  }
  else if(htim_base->Instance==TIM11)
 8001c2e:	4a3a      	ldr	r2, [pc, #232]	; (8001d18 <HAL_TIM_Base_MspInit+0x108>)
 8001c30:	4293      	cmp	r3, r2
 8001c32:	d045      	beq.n	8001cc0 <HAL_TIM_Base_MspInit+0xb0>
  /* USER CODE BEGIN TIM11_MspInit 1 */

  /* USER CODE END TIM11_MspInit 1 */
  }

}
 8001c34:	b007      	add	sp, #28
 8001c36:	f85d fb04 	ldr.w	pc, [sp], #4
    __HAL_RCC_TIM10_CLK_ENABLE();
 8001c3a:	2200      	movs	r2, #0
 8001c3c:	4b37      	ldr	r3, [pc, #220]	; (8001d1c <HAL_TIM_Base_MspInit+0x10c>)
 8001c3e:	9204      	str	r2, [sp, #16]
 8001c40:	6c59      	ldr	r1, [r3, #68]	; 0x44
 8001c42:	f441 3100 	orr.w	r1, r1, #131072	; 0x20000
 8001c46:	6459      	str	r1, [r3, #68]	; 0x44
 8001c48:	6c5b      	ldr	r3, [r3, #68]	; 0x44
 8001c4a:	f403 3300 	and.w	r3, r3, #131072	; 0x20000
 8001c4e:	9304      	str	r3, [sp, #16]
    HAL_NVIC_SetPriority(TIM1_UP_TIM10_IRQn, 0, 0);
 8001c50:	2019      	movs	r0, #25
 8001c52:	4611      	mov	r1, r2
    __HAL_RCC_TIM10_CLK_ENABLE();
 8001c54:	9b04      	ldr	r3, [sp, #16]
    HAL_NVIC_SetPriority(TIM1_UP_TIM10_IRQn, 0, 0);
 8001c56:	f000 fabf 	bl	80021d8 <HAL_NVIC_SetPriority>
    HAL_NVIC_EnableIRQ(TIM1_UP_TIM10_IRQn);
 8001c5a:	2019      	movs	r0, #25
}
 8001c5c:	b007      	add	sp, #28
 8001c5e:	f85d eb04 	ldr.w	lr, [sp], #4
    HAL_NVIC_EnableIRQ(TIM1_UP_TIM10_IRQn);
 8001c62:	f000 baf7 	b.w	8002254 <HAL_NVIC_EnableIRQ>
    __HAL_RCC_TIM2_CLK_ENABLE();
 8001c66:	2200      	movs	r2, #0
 8001c68:	f503 330e 	add.w	r3, r3, #145408	; 0x23800
 8001c6c:	9201      	str	r2, [sp, #4]
 8001c6e:	6c19      	ldr	r1, [r3, #64]	; 0x40
 8001c70:	f041 0101 	orr.w	r1, r1, #1
 8001c74:	6419      	str	r1, [r3, #64]	; 0x40
 8001c76:	6c1b      	ldr	r3, [r3, #64]	; 0x40
 8001c78:	f003 0301 	and.w	r3, r3, #1
 8001c7c:	9301      	str	r3, [sp, #4]
    HAL_NVIC_SetPriority(TIM2_IRQn, 0, 0);
 8001c7e:	201c      	movs	r0, #28
 8001c80:	4611      	mov	r1, r2
    __HAL_RCC_TIM2_CLK_ENABLE();
 8001c82:	9b01      	ldr	r3, [sp, #4]
    HAL_NVIC_SetPriority(TIM2_IRQn, 0, 0);
 8001c84:	f000 faa8 	bl	80021d8 <HAL_NVIC_SetPriority>
    HAL_NVIC_EnableIRQ(TIM2_IRQn);
 8001c88:	201c      	movs	r0, #28
}
 8001c8a:	b007      	add	sp, #28
 8001c8c:	f85d eb04 	ldr.w	lr, [sp], #4
    HAL_NVIC_EnableIRQ(TIM1_UP_TIM10_IRQn);
 8001c90:	f000 bae0 	b.w	8002254 <HAL_NVIC_EnableIRQ>
    __HAL_RCC_TIM5_CLK_ENABLE();
 8001c94:	2200      	movs	r2, #0
 8001c96:	4b21      	ldr	r3, [pc, #132]	; (8001d1c <HAL_TIM_Base_MspInit+0x10c>)
 8001c98:	9202      	str	r2, [sp, #8]
 8001c9a:	6c19      	ldr	r1, [r3, #64]	; 0x40
 8001c9c:	f041 0108 	orr.w	r1, r1, #8
 8001ca0:	6419      	str	r1, [r3, #64]	; 0x40
 8001ca2:	6c1b      	ldr	r3, [r3, #64]	; 0x40
 8001ca4:	f003 0308 	and.w	r3, r3, #8
 8001ca8:	9302      	str	r3, [sp, #8]
    HAL_NVIC_SetPriority(TIM5_IRQn, 0, 0);
 8001caa:	2032      	movs	r0, #50	; 0x32
 8001cac:	4611      	mov	r1, r2
    __HAL_RCC_TIM5_CLK_ENABLE();
 8001cae:	9b02      	ldr	r3, [sp, #8]
    HAL_NVIC_SetPriority(TIM5_IRQn, 0, 0);
 8001cb0:	f000 fa92 	bl	80021d8 <HAL_NVIC_SetPriority>
    HAL_NVIC_EnableIRQ(TIM5_IRQn);
 8001cb4:	2032      	movs	r0, #50	; 0x32
}
 8001cb6:	b007      	add	sp, #28
 8001cb8:	f85d eb04 	ldr.w	lr, [sp], #4
    HAL_NVIC_EnableIRQ(TIM1_UP_TIM10_IRQn);
 8001cbc:	f000 baca 	b.w	8002254 <HAL_NVIC_EnableIRQ>
    __HAL_RCC_TIM11_CLK_ENABLE();
 8001cc0:	4b16      	ldr	r3, [pc, #88]	; (8001d1c <HAL_TIM_Base_MspInit+0x10c>)
 8001cc2:	2200      	movs	r2, #0
 8001cc4:	9205      	str	r2, [sp, #20]
 8001cc6:	6c5a      	ldr	r2, [r3, #68]	; 0x44
 8001cc8:	f442 2280 	orr.w	r2, r2, #262144	; 0x40000
 8001ccc:	645a      	str	r2, [r3, #68]	; 0x44
 8001cce:	6c5b      	ldr	r3, [r3, #68]	; 0x44
 8001cd0:	f403 2380 	and.w	r3, r3, #262144	; 0x40000
 8001cd4:	9305      	str	r3, [sp, #20]
 8001cd6:	9b05      	ldr	r3, [sp, #20]
}
 8001cd8:	b007      	add	sp, #28
 8001cda:	f85d fb04 	ldr.w	pc, [sp], #4
    __HAL_RCC_TIM9_CLK_ENABLE();
 8001cde:	2200      	movs	r2, #0
 8001ce0:	4b0e      	ldr	r3, [pc, #56]	; (8001d1c <HAL_TIM_Base_MspInit+0x10c>)
 8001ce2:	9203      	str	r2, [sp, #12]
 8001ce4:	6c59      	ldr	r1, [r3, #68]	; 0x44
 8001ce6:	f441 3180 	orr.w	r1, r1, #65536	; 0x10000
 8001cea:	6459      	str	r1, [r3, #68]	; 0x44
 8001cec:	6c5b      	ldr	r3, [r3, #68]	; 0x44
 8001cee:	f403 3380 	and.w	r3, r3, #65536	; 0x10000
 8001cf2:	9303      	str	r3, [sp, #12]
    HAL_NVIC_SetPriority(TIM1_BRK_TIM9_IRQn, 0, 0);
 8001cf4:	2018      	movs	r0, #24
 8001cf6:	4611      	mov	r1, r2
    __HAL_RCC_TIM9_CLK_ENABLE();
 8001cf8:	9b03      	ldr	r3, [sp, #12]
    HAL_NVIC_SetPriority(TIM1_BRK_TIM9_IRQn, 0, 0);
 8001cfa:	f000 fa6d 	bl	80021d8 <HAL_NVIC_SetPriority>
    HAL_NVIC_EnableIRQ(TIM1_BRK_TIM9_IRQn);
 8001cfe:	2018      	movs	r0, #24
}
 8001d00:	b007      	add	sp, #28
 8001d02:	f85d eb04 	ldr.w	lr, [sp], #4
    HAL_NVIC_EnableIRQ(TIM1_UP_TIM10_IRQn);
 8001d06:	f000 baa5 	b.w	8002254 <HAL_NVIC_EnableIRQ>
 8001d0a:	bf00      	nop
 8001d0c:	40000c00 	.word	0x40000c00
 8001d10:	40014000 	.word	0x40014000
 8001d14:	40014400 	.word	0x40014400
 8001d18:	40014800 	.word	0x40014800
 8001d1c:	40023800 	.word	0x40023800

08001d20 <NMI_Handler>:
/******************************************************************************/
/**
  * @brief This function handles Non maskable interrupt.
  */
void NMI_Handler(void)
{
 8001d20:	e7fe      	b.n	8001d20 <NMI_Handler>
 8001d22:	bf00      	nop

08001d24 <HardFault_Handler>:

/**
  * @brief This function handles Hard fault interrupt.
  */
void HardFault_Handler(void)
{
 8001d24:	e7fe      	b.n	8001d24 <HardFault_Handler>
 8001d26:	bf00      	nop

08001d28 <MemManage_Handler>:

/**
  * @brief This function handles Memory management fault.
  */
void MemManage_Handler(void)
{
 8001d28:	e7fe      	b.n	8001d28 <MemManage_Handler>
 8001d2a:	bf00      	nop

08001d2c <BusFault_Handler>:

/**
  * @brief This function handles Pre-fetch fault, memory access fault.
  */
void BusFault_Handler(void)
{
 8001d2c:	e7fe      	b.n	8001d2c <BusFault_Handler>
 8001d2e:	bf00      	nop

08001d30 <UsageFault_Handler>:

/**
  * @brief This function handles Undefined instruction or illegal state.
  */
void UsageFault_Handler(void)
{
 8001d30:	e7fe      	b.n	8001d30 <UsageFault_Handler>
 8001d32:	bf00      	nop

08001d34 <SVC_Handler>:

  /* USER CODE END SVCall_IRQn 0 */
  /* USER CODE BEGIN SVCall_IRQn 1 */

  /* USER CODE END SVCall_IRQn 1 */
}
 8001d34:	4770      	bx	lr
 8001d36:	bf00      	nop

08001d38 <DebugMon_Handler>:
 8001d38:	4770      	bx	lr
 8001d3a:	bf00      	nop

08001d3c <PendSV_Handler>:
 8001d3c:	4770      	bx	lr
 8001d3e:	bf00      	nop

08001d40 <SysTick_Handler>:
void SysTick_Handler(void)
{
  /* USER CODE BEGIN SysTick_IRQn 0 */

  /* USER CODE END SysTick_IRQn 0 */
  HAL_IncTick();
 8001d40:	f000 b8a8 	b.w	8001e94 <HAL_IncTick>

08001d44 <EXTI0_IRQHandler>:
void EXTI0_IRQHandler(void)
{
  /* USER CODE BEGIN EXTI0_IRQn 0 */

  /* USER CODE END EXTI0_IRQn 0 */
  HAL_GPIO_EXTI_IRQHandler(GPIO_PIN_0);
 8001d44:	2001      	movs	r0, #1
 8001d46:	f000 bcab 	b.w	80026a0 <HAL_GPIO_EXTI_IRQHandler>
 8001d4a:	bf00      	nop

08001d4c <EXTI1_IRQHandler>:
void EXTI1_IRQHandler(void)
{
  /* USER CODE BEGIN EXTI1_IRQn 0 */

  /* USER CODE END EXTI1_IRQn 0 */
  HAL_GPIO_EXTI_IRQHandler(GPIO_PIN_1);
 8001d4c:	2002      	movs	r0, #2
 8001d4e:	f000 bca7 	b.w	80026a0 <HAL_GPIO_EXTI_IRQHandler>
 8001d52:	bf00      	nop

08001d54 <EXTI2_IRQHandler>:
void EXTI2_IRQHandler(void)
{
  /* USER CODE BEGIN EXTI2_IRQn 0 */

  /* USER CODE END EXTI2_IRQn 0 */
  HAL_GPIO_EXTI_IRQHandler(GPIO_PIN_2);
 8001d54:	2004      	movs	r0, #4
 8001d56:	f000 bca3 	b.w	80026a0 <HAL_GPIO_EXTI_IRQHandler>
 8001d5a:	bf00      	nop

08001d5c <EXTI3_IRQHandler>:
void EXTI3_IRQHandler(void)
{
  /* USER CODE BEGIN EXTI3_IRQn 0 */

  /* USER CODE END EXTI3_IRQn 0 */
  HAL_GPIO_EXTI_IRQHandler(GPIO_PIN_3);
 8001d5c:	2008      	movs	r0, #8
 8001d5e:	f000 bc9f 	b.w	80026a0 <HAL_GPIO_EXTI_IRQHandler>
 8001d62:	bf00      	nop

08001d64 <EXTI9_5_IRQHandler>:

/**
  * @brief This function handles EXTI line[9:5] interrupts.
  */
void EXTI9_5_IRQHandler(void)
{
 8001d64:	b508      	push	{r3, lr}
  /* USER CODE BEGIN EXTI9_5_IRQn 0 */

  /* USER CODE END EXTI9_5_IRQn 0 */
  HAL_GPIO_EXTI_IRQHandler(GPIO_PIN_6);
 8001d66:	2040      	movs	r0, #64	; 0x40
 8001d68:	f000 fc9a 	bl	80026a0 <HAL_GPIO_EXTI_IRQHandler>
  HAL_GPIO_EXTI_IRQHandler(GPIO_PIN_7);
 8001d6c:	2080      	movs	r0, #128	; 0x80
 8001d6e:	f000 fc97 	bl	80026a0 <HAL_GPIO_EXTI_IRQHandler>
  HAL_GPIO_EXTI_IRQHandler(GPIO_PIN_9);
  /* USER CODE BEGIN EXTI9_5_IRQn 1 */

  /* USER CODE END EXTI9_5_IRQn 1 */
}
 8001d72:	e8bd 4008 	ldmia.w	sp!, {r3, lr}
  HAL_GPIO_EXTI_IRQHandler(GPIO_PIN_9);
 8001d76:	f44f 7000 	mov.w	r0, #512	; 0x200
 8001d7a:	f000 bc91 	b.w	80026a0 <HAL_GPIO_EXTI_IRQHandler>
 8001d7e:	bf00      	nop

08001d80 <TIM1_BRK_TIM9_IRQHandler>:
void TIM1_BRK_TIM9_IRQHandler(void)
{
  /* USER CODE BEGIN TIM1_BRK_TIM9_IRQn 0 */

  /* USER CODE END TIM1_BRK_TIM9_IRQn 0 */
  HAL_TIM_IRQHandler(&htim9);
 8001d80:	4801      	ldr	r0, [pc, #4]	; (8001d88 <TIM1_BRK_TIM9_IRQHandler+0x8>)
 8001d82:	f001 bb3b 	b.w	80033fc <HAL_TIM_IRQHandler>
 8001d86:	bf00      	nop
 8001d88:	200002bc 	.word	0x200002bc

08001d8c <TIM1_UP_TIM10_IRQHandler>:
void TIM1_UP_TIM10_IRQHandler(void)
{
  /* USER CODE BEGIN TIM1_UP_TIM10_IRQn 0 */

  /* USER CODE END TIM1_UP_TIM10_IRQn 0 */
  HAL_TIM_IRQHandler(&htim10);
 8001d8c:	4801      	ldr	r0, [pc, #4]	; (8001d94 <TIM1_UP_TIM10_IRQHandler+0x8>)
 8001d8e:	f001 bb35 	b.w	80033fc <HAL_TIM_IRQHandler>
 8001d92:	bf00      	nop
 8001d94:	2000019c 	.word	0x2000019c

08001d98 <TIM2_IRQHandler>:
void TIM2_IRQHandler(void)
{
  /* USER CODE BEGIN TIM2_IRQn 0 */

  /* USER CODE END TIM2_IRQn 0 */
  HAL_TIM_IRQHandler(&htim2);
 8001d98:	4801      	ldr	r0, [pc, #4]	; (8001da0 <TIM2_IRQHandler+0x8>)
 8001d9a:	f001 bb2f 	b.w	80033fc <HAL_TIM_IRQHandler>
 8001d9e:	bf00      	nop
 8001da0:	2000022c 	.word	0x2000022c

08001da4 <TIM5_IRQHandler>:
void TIM5_IRQHandler(void)
{
  /* USER CODE BEGIN TIM5_IRQn 0 */

  /* USER CODE END TIM5_IRQn 0 */
  HAL_TIM_IRQHandler(&htim5);
 8001da4:	4801      	ldr	r0, [pc, #4]	; (8001dac <TIM5_IRQHandler+0x8>)
 8001da6:	f001 bb29 	b.w	80033fc <HAL_TIM_IRQHandler>
 8001daa:	bf00      	nop
 8001dac:	20000274 	.word	0x20000274

08001db0 <SystemInit>:
  */
void SystemInit(void)
{
  /* FPU settings ------------------------------------------------------------*/
  #if (__FPU_PRESENT == 1) && (__FPU_USED == 1)
    SCB->CPACR |= ((3UL << 10*2)|(3UL << 11*2));  /* set CP10 and CP11 Full Access */
 8001db0:	4a03      	ldr	r2, [pc, #12]	; (8001dc0 <SystemInit+0x10>)
 8001db2:	f8d2 3088 	ldr.w	r3, [r2, #136]	; 0x88
 8001db6:	f443 0370 	orr.w	r3, r3, #15728640	; 0xf00000
 8001dba:	f8c2 3088 	str.w	r3, [r2, #136]	; 0x88

  /* Configure the Vector Table location -------------------------------------*/
#if defined(USER_VECT_TAB_ADDRESS)
  SCB->VTOR = VECT_TAB_BASE_ADDRESS | VECT_TAB_OFFSET; /* Vector Table Relocation in Internal SRAM */
#endif /* USER_VECT_TAB_ADDRESS */
}
 8001dbe:	4770      	bx	lr
 8001dc0:	e000ed00 	.word	0xe000ed00

08001dc4 <Reset_Handler>:

    .section  .text.Reset_Handler
  .weak  Reset_Handler
  .type  Reset_Handler, %function
Reset_Handler:  
  ldr   sp, =_estack    		 /* set stack pointer */
 8001dc4:	f8df d034 	ldr.w	sp, [pc, #52]	; 8001dfc <LoopFillZerobss+0x12>

/* Copy the data segment initializers from flash to SRAM */  
  ldr r0, =_sdata
 8001dc8:	480d      	ldr	r0, [pc, #52]	; (8001e00 <LoopFillZerobss+0x16>)
  ldr r1, =_edata
 8001dca:	490e      	ldr	r1, [pc, #56]	; (8001e04 <LoopFillZerobss+0x1a>)
  ldr r2, =_sidata
 8001dcc:	4a0e      	ldr	r2, [pc, #56]	; (8001e08 <LoopFillZerobss+0x1e>)
  movs r3, #0
 8001dce:	2300      	movs	r3, #0
  b LoopCopyDataInit
 8001dd0:	e002      	b.n	8001dd8 <LoopCopyDataInit>

08001dd2 <CopyDataInit>:

CopyDataInit:
  ldr r4, [r2, r3]
 8001dd2:	58d4      	ldr	r4, [r2, r3]
  str r4, [r0, r3]
 8001dd4:	50c4      	str	r4, [r0, r3]
  adds r3, r3, #4
 8001dd6:	3304      	adds	r3, #4

08001dd8 <LoopCopyDataInit>:

LoopCopyDataInit:
  adds r4, r0, r3
 8001dd8:	18c4      	adds	r4, r0, r3
  cmp r4, r1
 8001dda:	428c      	cmp	r4, r1
  bcc CopyDataInit
 8001ddc:	d3f9      	bcc.n	8001dd2 <CopyDataInit>
  
/* Zero fill the bss segment. */
  ldr r2, =_sbss
 8001dde:	4a0b      	ldr	r2, [pc, #44]	; (8001e0c <LoopFillZerobss+0x22>)
  ldr r4, =_ebss
 8001de0:	4c0b      	ldr	r4, [pc, #44]	; (8001e10 <LoopFillZerobss+0x26>)
  movs r3, #0
 8001de2:	2300      	movs	r3, #0
  b LoopFillZerobss
 8001de4:	e001      	b.n	8001dea <LoopFillZerobss>

08001de6 <FillZerobss>:

FillZerobss:
  str  r3, [r2]
 8001de6:	6013      	str	r3, [r2, #0]
  adds r2, r2, #4
 8001de8:	3204      	adds	r2, #4

08001dea <LoopFillZerobss>:

LoopFillZerobss:
  cmp r2, r4
 8001dea:	42a2      	cmp	r2, r4
  bcc FillZerobss
 8001dec:	d3fb      	bcc.n	8001de6 <FillZerobss>

/* Call the clock system initialization function.*/
  bl  SystemInit   
 8001dee:	f7ff ffdf 	bl	8001db0 <SystemInit>
/* Call static constructors */
    bl __libc_init_array
 8001df2:	f001 fbed 	bl	80035d0 <__libc_init_array>
/* Call the application's entry point.*/
  bl  main
 8001df6:	f7fe ffcf 	bl	8000d98 <main>
  bx  lr    
 8001dfa:	4770      	bx	lr
  ldr   sp, =_estack    		 /* set stack pointer */
 8001dfc:	20020000 	.word	0x20020000
  ldr r0, =_sdata
 8001e00:	20000000 	.word	0x20000000
  ldr r1, =_edata
 8001e04:	2000003c 	.word	0x2000003c
  ldr r2, =_sidata
 8001e08:	0800366c 	.word	0x0800366c
  ldr r2, =_sbss
 8001e0c:	20000040 	.word	0x20000040
  ldr r4, =_ebss
 8001e10:	200003e0 	.word	0x200003e0

08001e14 <ADC_IRQHandler>:
 * @retval None       
*/
    .section  .text.Default_Handler,"ax",%progbits
Default_Handler:
Infinite_Loop:
  b  Infinite_Loop
 8001e14:	e7fe      	b.n	8001e14 <ADC_IRQHandler>
	...

08001e18 <HAL_InitTick>:
  *       implementation  in user file.
  * @param TickPriority Tick interrupt priority.
  * @retval HAL status
  */
__weak HAL_StatusTypeDef HAL_InitTick(uint32_t TickPriority)
{
 8001e18:	b538      	push	{r3, r4, r5, lr}
  /* Configure the SysTick to have interrupt in 1ms time basis*/
  if (HAL_SYSTICK_Config(SystemCoreClock / (1000U / uwTickFreq)) > 0U)
 8001e1a:	4a0e      	ldr	r2, [pc, #56]	; (8001e54 <HAL_InitTick+0x3c>)
 8001e1c:	4b0e      	ldr	r3, [pc, #56]	; (8001e58 <HAL_InitTick+0x40>)
 8001e1e:	7812      	ldrb	r2, [r2, #0]
 8001e20:	681b      	ldr	r3, [r3, #0]
{
 8001e22:	4605      	mov	r5, r0
  if (HAL_SYSTICK_Config(SystemCoreClock / (1000U / uwTickFreq)) > 0U)
 8001e24:	f44f 707a 	mov.w	r0, #1000	; 0x3e8
 8001e28:	fbb0 f0f2 	udiv	r0, r0, r2
 8001e2c:	fbb3 f0f0 	udiv	r0, r3, r0
 8001e30:	f000 fa1e 	bl	8002270 <HAL_SYSTICK_Config>
 8001e34:	b908      	cbnz	r0, 8001e3a <HAL_InitTick+0x22>
  {
    return HAL_ERROR;
  }

  /* Configure the SysTick IRQ priority */
  if (TickPriority < (1UL << __NVIC_PRIO_BITS))
 8001e36:	2d0f      	cmp	r5, #15
 8001e38:	d901      	bls.n	8001e3e <HAL_InitTick+0x26>
    return HAL_ERROR;
 8001e3a:	2001      	movs	r0, #1
    return HAL_ERROR;
  }

  /* Return function status */
  return HAL_OK;
}
 8001e3c:	bd38      	pop	{r3, r4, r5, pc}
 8001e3e:	4604      	mov	r4, r0
    HAL_NVIC_SetPriority(SysTick_IRQn, TickPriority, 0U);
 8001e40:	4602      	mov	r2, r0
 8001e42:	4629      	mov	r1, r5
 8001e44:	f04f 30ff 	mov.w	r0, #4294967295	; 0xffffffff
 8001e48:	f000 f9c6 	bl	80021d8 <HAL_NVIC_SetPriority>
    uwTickPrio = TickPriority;
 8001e4c:	4b03      	ldr	r3, [pc, #12]	; (8001e5c <HAL_InitTick+0x44>)
 8001e4e:	4620      	mov	r0, r4
 8001e50:	601d      	str	r5, [r3, #0]
}
 8001e52:	bd38      	pop	{r3, r4, r5, pc}
 8001e54:	20000034 	.word	0x20000034
 8001e58:	20000030 	.word	0x20000030
 8001e5c:	20000038 	.word	0x20000038

08001e60 <HAL_Init>:
{
 8001e60:	b508      	push	{r3, lr}
  __HAL_FLASH_INSTRUCTION_CACHE_ENABLE();
 8001e62:	4b0b      	ldr	r3, [pc, #44]	; (8001e90 <HAL_Init+0x30>)
 8001e64:	681a      	ldr	r2, [r3, #0]
 8001e66:	f442 7200 	orr.w	r2, r2, #512	; 0x200
 8001e6a:	601a      	str	r2, [r3, #0]
  __HAL_FLASH_DATA_CACHE_ENABLE();
 8001e6c:	681a      	ldr	r2, [r3, #0]
 8001e6e:	f442 6280 	orr.w	r2, r2, #1024	; 0x400
 8001e72:	601a      	str	r2, [r3, #0]
  __HAL_FLASH_PREFETCH_BUFFER_ENABLE();
 8001e74:	681a      	ldr	r2, [r3, #0]
 8001e76:	f442 7280 	orr.w	r2, r2, #256	; 0x100
 8001e7a:	601a      	str	r2, [r3, #0]
  HAL_NVIC_SetPriorityGrouping(NVIC_PRIORITYGROUP_4);
 8001e7c:	2003      	movs	r0, #3
 8001e7e:	f000 f999 	bl	80021b4 <HAL_NVIC_SetPriorityGrouping>
  HAL_InitTick(TICK_INT_PRIORITY);
 8001e82:	200f      	movs	r0, #15
 8001e84:	f7ff ffc8 	bl	8001e18 <HAL_InitTick>
  HAL_MspInit();
 8001e88:	f7ff fe36 	bl	8001af8 <HAL_MspInit>
}
 8001e8c:	2000      	movs	r0, #0
 8001e8e:	bd08      	pop	{r3, pc}
 8001e90:	40023c00 	.word	0x40023c00

08001e94 <HAL_IncTick>:
  *      implementations in user file.
  * @retval None
  */
__weak void HAL_IncTick(void)
{
  uwTick += uwTickFreq;
 8001e94:	4a03      	ldr	r2, [pc, #12]	; (8001ea4 <HAL_IncTick+0x10>)
 8001e96:	4b04      	ldr	r3, [pc, #16]	; (8001ea8 <HAL_IncTick+0x14>)
 8001e98:	6811      	ldr	r1, [r2, #0]
 8001e9a:	781b      	ldrb	r3, [r3, #0]
 8001e9c:	440b      	add	r3, r1
 8001e9e:	6013      	str	r3, [r2, #0]
}
 8001ea0:	4770      	bx	lr
 8001ea2:	bf00      	nop
 8001ea4:	200003bc 	.word	0x200003bc
 8001ea8:	20000034 	.word	0x20000034

08001eac <HAL_GetTick>:
  *       implementations in user file.
  * @retval tick value
  */
__weak uint32_t HAL_GetTick(void)
{
  return uwTick;
 8001eac:	4b01      	ldr	r3, [pc, #4]	; (8001eb4 <HAL_GetTick+0x8>)
 8001eae:	6818      	ldr	r0, [r3, #0]
}
 8001eb0:	4770      	bx	lr
 8001eb2:	bf00      	nop
 8001eb4:	200003bc 	.word	0x200003bc

08001eb8 <HAL_Delay>:
  *       implementations in user file.
  * @param Delay specifies the delay time length, in milliseconds.
  * @retval None
  */
__weak void HAL_Delay(uint32_t Delay)
{
 8001eb8:	b538      	push	{r3, r4, r5, lr}
 8001eba:	4604      	mov	r4, r0
  uint32_t tickstart = HAL_GetTick();
 8001ebc:	f7ff fff6 	bl	8001eac <HAL_GetTick>
  uint32_t wait = Delay;

  /* Add a freq to guarantee minimum wait */
  if (wait < HAL_MAX_DELAY)
 8001ec0:	1c63      	adds	r3, r4, #1
  uint32_t tickstart = HAL_GetTick();
 8001ec2:	4605      	mov	r5, r0
  if (wait < HAL_MAX_DELAY)
 8001ec4:	d002      	beq.n	8001ecc <HAL_Delay+0x14>
  {
    wait += (uint32_t)(uwTickFreq);
 8001ec6:	4b04      	ldr	r3, [pc, #16]	; (8001ed8 <HAL_Delay+0x20>)
 8001ec8:	781b      	ldrb	r3, [r3, #0]
 8001eca:	441c      	add	r4, r3
  }

  while((HAL_GetTick() - tickstart) < wait)
 8001ecc:	f7ff ffee 	bl	8001eac <HAL_GetTick>
 8001ed0:	1b43      	subs	r3, r0, r5
 8001ed2:	42a3      	cmp	r3, r4
 8001ed4:	d3fa      	bcc.n	8001ecc <HAL_Delay+0x14>
  {
  }
}
 8001ed6:	bd38      	pop	{r3, r4, r5, pc}
 8001ed8:	20000034 	.word	0x20000034

08001edc <HAL_ADC_Init>:
HAL_StatusTypeDef HAL_ADC_Init(ADC_HandleTypeDef* hadc)
{
  HAL_StatusTypeDef tmp_hal_status = HAL_OK;
  
  /* Check ADC handle */
  if(hadc == NULL)
 8001edc:	2800      	cmp	r0, #0
 8001ede:	f000 809f 	beq.w	8002020 <HAL_ADC_Init+0x144>
{
 8001ee2:	b538      	push	{r3, r4, r5, lr}
  if(hadc->Init.ExternalTrigConv != ADC_SOFTWARE_START)
  {
    assert_param(IS_ADC_EXT_TRIG_EDGE(hadc->Init.ExternalTrigConvEdge));
  }
  
  if(hadc->State == HAL_ADC_STATE_RESET)
 8001ee4:	6c05      	ldr	r5, [r0, #64]	; 0x40
 8001ee6:	4604      	mov	r4, r0
 8001ee8:	b13d      	cbz	r5, 8001efa <HAL_ADC_Init+0x1e>
    hadc->Lock = HAL_UNLOCKED;
  }
  
  /* Configuration of ADC parameters if previous preliminary actions are      */ 
  /* correctly completed.                                                     */
  if (HAL_IS_BIT_CLR(hadc->State, HAL_ADC_STATE_ERROR_INTERNAL))
 8001eea:	6c23      	ldr	r3, [r4, #64]	; 0x40
 8001eec:	06db      	lsls	r3, r3, #27
 8001eee:	d50c      	bpl.n	8001f0a <HAL_ADC_Init+0x2e>
  {
    tmp_hal_status = HAL_ERROR;
  }
  
  /* Release Lock */
  __HAL_UNLOCK(hadc);
 8001ef0:	2300      	movs	r3, #0
 8001ef2:	f884 303c 	strb.w	r3, [r4, #60]	; 0x3c
    tmp_hal_status = HAL_ERROR;
 8001ef6:	2001      	movs	r0, #1

  /* Return function status */
  return tmp_hal_status;
}
 8001ef8:	bd38      	pop	{r3, r4, r5, pc}
    HAL_ADC_MspInit(hadc);
 8001efa:	f7ff fe19 	bl	8001b30 <HAL_ADC_MspInit>
    ADC_CLEAR_ERRORCODE(hadc);
 8001efe:	6465      	str	r5, [r4, #68]	; 0x44
  if (HAL_IS_BIT_CLR(hadc->State, HAL_ADC_STATE_ERROR_INTERNAL))
 8001f00:	6c23      	ldr	r3, [r4, #64]	; 0x40
    hadc->Lock = HAL_UNLOCKED;
 8001f02:	f884 503c 	strb.w	r5, [r4, #60]	; 0x3c
  if (HAL_IS_BIT_CLR(hadc->State, HAL_ADC_STATE_ERROR_INTERNAL))
 8001f06:	06db      	lsls	r3, r3, #27
 8001f08:	d4f2      	bmi.n	8001ef0 <HAL_ADC_Init+0x14>
    ADC_STATE_CLR_SET(hadc->State,
 8001f0a:	6c23      	ldr	r3, [r4, #64]	; 0x40
  /* (Depending on STM32F4 product, there may be up to 3 ADCs and 1 common */
  /* control register)                                                    */
  tmpADC_Common = ADC_COMMON_REGISTER(hadc);
  
  /* Set the ADC clock prescaler */
  tmpADC_Common->CCR &= ~(ADC_CCR_ADCPRE);
 8001f0c:	4a48      	ldr	r2, [pc, #288]	; (8002030 <HAL_ADC_Init+0x154>)
    ADC_STATE_CLR_SET(hadc->State,
 8001f0e:	f423 5388 	bic.w	r3, r3, #4352	; 0x1100
 8001f12:	f023 0302 	bic.w	r3, r3, #2
 8001f16:	f043 0302 	orr.w	r3, r3, #2
 8001f1a:	6423      	str	r3, [r4, #64]	; 0x40
  tmpADC_Common->CCR &= ~(ADC_CCR_ADCPRE);
 8001f1c:	6851      	ldr	r1, [r2, #4]
  tmpADC_Common->CCR |=  hadc->Init.ClockPrescaler;
  
  /* Set ADC scan mode */
  hadc->Instance->CR1 &= ~(ADC_CR1_SCAN);
 8001f1e:	6823      	ldr	r3, [r4, #0]
  tmpADC_Common->CCR &= ~(ADC_CCR_ADCPRE);
 8001f20:	f421 3140 	bic.w	r1, r1, #196608	; 0x30000
 8001f24:	6051      	str	r1, [r2, #4]
  tmpADC_Common->CCR |=  hadc->Init.ClockPrescaler;
 8001f26:	6851      	ldr	r1, [r2, #4]
 8001f28:	6860      	ldr	r0, [r4, #4]
 8001f2a:	4301      	orrs	r1, r0
 8001f2c:	6051      	str	r1, [r2, #4]
  hadc->Instance->CR1 &= ~(ADC_CR1_SCAN);
 8001f2e:	685a      	ldr	r2, [r3, #4]
  hadc->Instance->CR1 |=  ADC_CR1_SCANCONV(hadc->Init.ScanConvMode);
 8001f30:	6925      	ldr	r5, [r4, #16]
  
  /* Set ADC resolution */
  hadc->Instance->CR1 &= ~(ADC_CR1_RES);
  hadc->Instance->CR1 |=  hadc->Init.Resolution;
 8001f32:	68a0      	ldr	r0, [r4, #8]
  hadc->Instance->CR1 &= ~(ADC_CR1_SCAN);
 8001f34:	f422 7280 	bic.w	r2, r2, #256	; 0x100
 8001f38:	605a      	str	r2, [r3, #4]
  hadc->Instance->CR1 |=  ADC_CR1_SCANCONV(hadc->Init.ScanConvMode);
 8001f3a:	6859      	ldr	r1, [r3, #4]
 8001f3c:	ea41 2105 	orr.w	r1, r1, r5, lsl #8
 8001f40:	6059      	str	r1, [r3, #4]
  hadc->Instance->CR1 &= ~(ADC_CR1_RES);
 8001f42:	6859      	ldr	r1, [r3, #4]
 8001f44:	f021 7140 	bic.w	r1, r1, #50331648	; 0x3000000
 8001f48:	6059      	str	r1, [r3, #4]
  hadc->Instance->CR1 |=  hadc->Init.Resolution;
 8001f4a:	685a      	ldr	r2, [r3, #4]
 8001f4c:	4302      	orrs	r2, r0
 8001f4e:	605a      	str	r2, [r3, #4]
  
  /* Set ADC data alignment */
  hadc->Instance->CR2 &= ~(ADC_CR2_ALIGN);
 8001f50:	6899      	ldr	r1, [r3, #8]
  hadc->Instance->CR2 |= hadc->Init.DataAlign;
 8001f52:	68e0      	ldr	r0, [r4, #12]
  hadc->Instance->CR2 &= ~(ADC_CR2_ALIGN);
 8001f54:	f421 6100 	bic.w	r1, r1, #2048	; 0x800
 8001f58:	6099      	str	r1, [r3, #8]
  hadc->Instance->CR2 |= hadc->Init.DataAlign;
 8001f5a:	689a      	ldr	r2, [r3, #8]
  /* Enable external trigger if trigger selection is different of software  */
  /* start.                                                                 */
  /* Note: This configuration keeps the hardware feature of parameter       */
  /*       ExternalTrigConvEdge "trigger edge none" equivalent to           */
  /*       software start.                                                  */
  if(hadc->Init.ExternalTrigConv != ADC_SOFTWARE_START)
 8001f5c:	6aa1      	ldr	r1, [r4, #40]	; 0x28
  hadc->Instance->CR2 |= hadc->Init.DataAlign;
 8001f5e:	4302      	orrs	r2, r0
 8001f60:	609a      	str	r2, [r3, #8]
  if(hadc->Init.ExternalTrigConv != ADC_SOFTWARE_START)
 8001f62:	4a34      	ldr	r2, [pc, #208]	; (8002034 <HAL_ADC_Init+0x158>)
 8001f64:	4291      	cmp	r1, r2
 8001f66:	d052      	beq.n	800200e <HAL_ADC_Init+0x132>
  {
    /* Select external trigger to start conversion */
    hadc->Instance->CR2 &= ~(ADC_CR2_EXTSEL);
 8001f68:	6898      	ldr	r0, [r3, #8]
    hadc->Instance->CR2 |= hadc->Init.ExternalTrigConv;
    
    /* Select external trigger polarity */
    hadc->Instance->CR2 &= ~(ADC_CR2_EXTEN);
    hadc->Instance->CR2 |= hadc->Init.ExternalTrigConvEdge;
 8001f6a:	6ae5      	ldr	r5, [r4, #44]	; 0x2c
    hadc->Instance->CR2 &= ~(ADC_CR2_EXTSEL);
 8001f6c:	f020 6070 	bic.w	r0, r0, #251658240	; 0xf000000
 8001f70:	6098      	str	r0, [r3, #8]
    hadc->Instance->CR2 |= hadc->Init.ExternalTrigConv;
 8001f72:	689a      	ldr	r2, [r3, #8]
 8001f74:	4311      	orrs	r1, r2
 8001f76:	6099      	str	r1, [r3, #8]
    hadc->Instance->CR2 &= ~(ADC_CR2_EXTEN);
 8001f78:	6899      	ldr	r1, [r3, #8]
 8001f7a:	f021 5140 	bic.w	r1, r1, #805306368	; 0x30000000
 8001f7e:	6099      	str	r1, [r3, #8]
    hadc->Instance->CR2 |= hadc->Init.ExternalTrigConvEdge;
 8001f80:	689a      	ldr	r2, [r3, #8]
 8001f82:	432a      	orrs	r2, r5
 8001f84:	609a      	str	r2, [r3, #8]
    hadc->Instance->CR2 &= ~(ADC_CR2_EXTSEL);
    hadc->Instance->CR2 &= ~(ADC_CR2_EXTEN);
  }
  
  /* Enable or disable ADC continuous conversion mode */
  hadc->Instance->CR2 &= ~(ADC_CR2_CONT);
 8001f86:	689a      	ldr	r2, [r3, #8]
 8001f88:	f022 0202 	bic.w	r2, r2, #2
 8001f8c:	609a      	str	r2, [r3, #8]
  hadc->Instance->CR2 |= ADC_CR2_CONTINUOUS((uint32_t)hadc->Init.ContinuousConvMode);
 8001f8e:	689a      	ldr	r2, [r3, #8]
 8001f90:	7e21      	ldrb	r1, [r4, #24]
 8001f92:	ea42 0241 	orr.w	r2, r2, r1, lsl #1
 8001f96:	609a      	str	r2, [r3, #8]
  
  if(hadc->Init.DiscontinuousConvMode != DISABLE)
 8001f98:	f894 2020 	ldrb.w	r2, [r4, #32]
 8001f9c:	2a00      	cmp	r2, #0
 8001f9e:	d041      	beq.n	8002024 <HAL_ADC_Init+0x148>
  {
    assert_param(IS_ADC_REGULAR_DISC_NUMBER(hadc->Init.NbrOfDiscConversion));
  
    /* Enable the selected ADC regular discontinuous mode */
    hadc->Instance->CR1 |= (uint32_t)ADC_CR1_DISCEN;
 8001fa0:	6859      	ldr	r1, [r3, #4]
    
    /* Set the number of channels to be converted in discontinuous mode */
    hadc->Instance->CR1 &= ~(ADC_CR1_DISCNUM);
    hadc->Instance->CR1 |=  ADC_CR1_DISCONTINUOUS(hadc->Init.NbrOfDiscConversion);
 8001fa2:	6a62      	ldr	r2, [r4, #36]	; 0x24
    hadc->Instance->CR1 |= (uint32_t)ADC_CR1_DISCEN;
 8001fa4:	f441 6100 	orr.w	r1, r1, #2048	; 0x800
 8001fa8:	6059      	str	r1, [r3, #4]
    hadc->Instance->CR1 &= ~(ADC_CR1_DISCNUM);
 8001faa:	6858      	ldr	r0, [r3, #4]
 8001fac:	f420 4060 	bic.w	r0, r0, #57344	; 0xe000
 8001fb0:	6058      	str	r0, [r3, #4]
    hadc->Instance->CR1 |=  ADC_CR1_DISCONTINUOUS(hadc->Init.NbrOfDiscConversion);
 8001fb2:	1e51      	subs	r1, r2, #1
 8001fb4:	685a      	ldr	r2, [r3, #4]
 8001fb6:	ea42 3241 	orr.w	r2, r2, r1, lsl #13
 8001fba:	605a      	str	r2, [r3, #4]
    /* Disable the selected ADC regular discontinuous mode */
    hadc->Instance->CR1 &= ~(ADC_CR1_DISCEN);
  }
  
  /* Set ADC number of conversion */
  hadc->Instance->SQR1 &= ~(ADC_SQR1_L);
 8001fbc:	6ada      	ldr	r2, [r3, #44]	; 0x2c
  hadc->Instance->SQR1 |=  ADC_SQR1(hadc->Init.NbrOfConversion);
 8001fbe:	69e1      	ldr	r1, [r4, #28]
  hadc->Instance->CR2 &= ~(ADC_CR2_DDS);
  hadc->Instance->CR2 |= ADC_CR2_DMAContReq((uint32_t)hadc->Init.DMAContinuousRequests);
  
  /* Enable or disable ADC end of conversion selection */
  hadc->Instance->CR2 &= ~(ADC_CR2_EOCS);
  hadc->Instance->CR2 |= ADC_CR2_EOCSelection(hadc->Init.EOCSelection);
 8001fc0:	6965      	ldr	r5, [r4, #20]
  hadc->Instance->SQR1 &= ~(ADC_SQR1_L);
 8001fc2:	f422 0270 	bic.w	r2, r2, #15728640	; 0xf00000
 8001fc6:	62da      	str	r2, [r3, #44]	; 0x2c
  hadc->Instance->SQR1 |=  ADC_SQR1(hadc->Init.NbrOfConversion);
 8001fc8:	6ada      	ldr	r2, [r3, #44]	; 0x2c
 8001fca:	3901      	subs	r1, #1
 8001fcc:	ea42 5201 	orr.w	r2, r2, r1, lsl #20
 8001fd0:	62da      	str	r2, [r3, #44]	; 0x2c
  hadc->Instance->CR2 &= ~(ADC_CR2_DDS);
 8001fd2:	6899      	ldr	r1, [r3, #8]
 8001fd4:	f421 7100 	bic.w	r1, r1, #512	; 0x200
 8001fd8:	6099      	str	r1, [r3, #8]
  hadc->Instance->CR2 |= ADC_CR2_DMAContReq((uint32_t)hadc->Init.DMAContinuousRequests);
 8001fda:	6899      	ldr	r1, [r3, #8]
 8001fdc:	f894 2030 	ldrb.w	r2, [r4, #48]	; 0x30
 8001fe0:	ea41 2142 	orr.w	r1, r1, r2, lsl #9
 8001fe4:	6099      	str	r1, [r3, #8]
  hadc->Instance->CR2 &= ~(ADC_CR2_EOCS);
 8001fe6:	6899      	ldr	r1, [r3, #8]
 8001fe8:	f421 6180 	bic.w	r1, r1, #1024	; 0x400
 8001fec:	6099      	str	r1, [r3, #8]
  hadc->Instance->CR2 |= ADC_CR2_EOCSelection(hadc->Init.EOCSelection);
 8001fee:	689a      	ldr	r2, [r3, #8]
    ADC_CLEAR_ERRORCODE(hadc);
 8001ff0:	2000      	movs	r0, #0
  hadc->Instance->CR2 |= ADC_CR2_EOCSelection(hadc->Init.EOCSelection);
 8001ff2:	ea42 2285 	orr.w	r2, r2, r5, lsl #10
 8001ff6:	609a      	str	r2, [r3, #8]
    ADC_CLEAR_ERRORCODE(hadc);
 8001ff8:	6460      	str	r0, [r4, #68]	; 0x44
    ADC_STATE_CLR_SET(hadc->State,
 8001ffa:	6c23      	ldr	r3, [r4, #64]	; 0x40
 8001ffc:	f023 0303 	bic.w	r3, r3, #3
 8002000:	f043 0301 	orr.w	r3, r3, #1
 8002004:	6423      	str	r3, [r4, #64]	; 0x40
  __HAL_UNLOCK(hadc);
 8002006:	2300      	movs	r3, #0
 8002008:	f884 303c 	strb.w	r3, [r4, #60]	; 0x3c
}
 800200c:	bd38      	pop	{r3, r4, r5, pc}
    hadc->Instance->CR2 &= ~(ADC_CR2_EXTSEL);
 800200e:	689a      	ldr	r2, [r3, #8]
 8002010:	f022 6270 	bic.w	r2, r2, #251658240	; 0xf000000
 8002014:	609a      	str	r2, [r3, #8]
    hadc->Instance->CR2 &= ~(ADC_CR2_EXTEN);
 8002016:	689a      	ldr	r2, [r3, #8]
 8002018:	f022 5240 	bic.w	r2, r2, #805306368	; 0x30000000
 800201c:	609a      	str	r2, [r3, #8]
 800201e:	e7b2      	b.n	8001f86 <HAL_ADC_Init+0xaa>
    return HAL_ERROR;
 8002020:	2001      	movs	r0, #1
}
 8002022:	4770      	bx	lr
    hadc->Instance->CR1 &= ~(ADC_CR1_DISCEN);
 8002024:	685a      	ldr	r2, [r3, #4]
 8002026:	f422 6200 	bic.w	r2, r2, #2048	; 0x800
 800202a:	605a      	str	r2, [r3, #4]
 800202c:	e7c6      	b.n	8001fbc <HAL_ADC_Init+0xe0>
 800202e:	bf00      	nop
 8002030:	40012300 	.word	0x40012300
 8002034:	0f000001 	.word	0x0f000001

08002038 <HAL_ADC_ConfigChannel>:
{
 8002038:	b530      	push	{r4, r5, lr}
  __HAL_LOCK(hadc);
 800203a:	f890 303c 	ldrb.w	r3, [r0, #60]	; 0x3c
{
 800203e:	b083      	sub	sp, #12
  __IO uint32_t counter = 0U;
 8002040:	2200      	movs	r2, #0
  __HAL_LOCK(hadc);
 8002042:	2b01      	cmp	r3, #1
  __IO uint32_t counter = 0U;
 8002044:	9201      	str	r2, [sp, #4]
  __HAL_LOCK(hadc);
 8002046:	f000 809b 	beq.w	8002180 <HAL_ADC_ConfigChannel+0x148>
 800204a:	2301      	movs	r3, #1
 800204c:	f880 303c 	strb.w	r3, [r0, #60]	; 0x3c
  if (sConfig->Channel > ADC_CHANNEL_9)
 8002050:	680c      	ldr	r4, [r1, #0]
    hadc->Instance->SMPR1 &= ~ADC_SMPR1(ADC_SMPR1_SMP10, sConfig->Channel);
 8002052:	6803      	ldr	r3, [r0, #0]
  if (sConfig->Channel > ADC_CHANNEL_9)
 8002054:	2c09      	cmp	r4, #9
 8002056:	d82d      	bhi.n	80020b4 <HAL_ADC_ConfigChannel+0x7c>
    hadc->Instance->SMPR2 &= ~ADC_SMPR2(ADC_SMPR2_SMP0, sConfig->Channel);
 8002058:	691d      	ldr	r5, [r3, #16]
    hadc->Instance->SMPR2 |= ADC_SMPR2(sConfig->SamplingTime, sConfig->Channel);
 800205a:	688a      	ldr	r2, [r1, #8]
    hadc->Instance->SMPR2 &= ~ADC_SMPR2(ADC_SMPR2_SMP0, sConfig->Channel);
 800205c:	eb04 0e44 	add.w	lr, r4, r4, lsl #1
 8002060:	f04f 0c07 	mov.w	ip, #7
 8002064:	fa0c fc0e 	lsl.w	ip, ip, lr
 8002068:	ea25 050c 	bic.w	r5, r5, ip
 800206c:	611d      	str	r5, [r3, #16]
    hadc->Instance->SMPR2 |= ADC_SMPR2(sConfig->SamplingTime, sConfig->Channel);
 800206e:	691d      	ldr	r5, [r3, #16]
 8002070:	fa02 f20e 	lsl.w	r2, r2, lr
 8002074:	432a      	orrs	r2, r5
 8002076:	611a      	str	r2, [r3, #16]
  if (sConfig->Rank < 7U)
 8002078:	684a      	ldr	r2, [r1, #4]
 800207a:	2a06      	cmp	r2, #6
    hadc->Instance->SMPR2 |= ADC_SMPR2(sConfig->SamplingTime, sConfig->Channel);
 800207c:	46a4      	mov	ip, r4
  if (sConfig->Rank < 7U)
 800207e:	d82f      	bhi.n	80020e0 <HAL_ADC_ConfigChannel+0xa8>
    hadc->Instance->SQR3 &= ~ADC_SQR3_RK(ADC_SQR3_SQ1, sConfig->Rank);
 8002080:	eb02 0282 	add.w	r2, r2, r2, lsl #2
 8002084:	6b59      	ldr	r1, [r3, #52]	; 0x34
 8002086:	3a05      	subs	r2, #5
 8002088:	f04f 0e1f 	mov.w	lr, #31
    hadc->Instance->SQR3 |= ADC_SQR3_RK(sConfig->Channel, sConfig->Rank);
 800208c:	fa0c fc02 	lsl.w	ip, ip, r2
    hadc->Instance->SQR3 &= ~ADC_SQR3_RK(ADC_SQR3_SQ1, sConfig->Rank);
 8002090:	fa0e f202 	lsl.w	r2, lr, r2
 8002094:	ea21 0202 	bic.w	r2, r1, r2
 8002098:	635a      	str	r2, [r3, #52]	; 0x34
    hadc->Instance->SQR3 |= ADC_SQR3_RK(sConfig->Channel, sConfig->Rank);
 800209a:	6b5a      	ldr	r2, [r3, #52]	; 0x34
 800209c:	ea4c 0202 	orr.w	r2, ip, r2
 80020a0:	635a      	str	r2, [r3, #52]	; 0x34
  if ((hadc->Instance == ADC1) && (sConfig->Channel == ADC_CHANNEL_VBAT))
 80020a2:	4a3f      	ldr	r2, [pc, #252]	; (80021a0 <HAL_ADC_ConfigChannel+0x168>)
 80020a4:	4293      	cmp	r3, r2
 80020a6:	d030      	beq.n	800210a <HAL_ADC_ConfigChannel+0xd2>
  __HAL_UNLOCK(hadc);
 80020a8:	2300      	movs	r3, #0
 80020aa:	f880 303c 	strb.w	r3, [r0, #60]	; 0x3c
  return HAL_OK;
 80020ae:	4618      	mov	r0, r3
}
 80020b0:	b003      	add	sp, #12
 80020b2:	bd30      	pop	{r4, r5, pc}
 80020b4:	fa1f fc84 	uxth.w	ip, r4
    hadc->Instance->SMPR1 &= ~ADC_SMPR1(ADC_SMPR1_SMP10, sConfig->Channel);
 80020b8:	eb0c 024c 	add.w	r2, ip, ip, lsl #1
 80020bc:	68dd      	ldr	r5, [r3, #12]
 80020be:	f1a2 0e1e 	sub.w	lr, r2, #30
 80020c2:	2207      	movs	r2, #7
 80020c4:	fa02 f20e 	lsl.w	r2, r2, lr
 80020c8:	ea25 0202 	bic.w	r2, r5, r2
 80020cc:	60da      	str	r2, [r3, #12]
    hadc->Instance->SMPR1 |= ADC_SMPR1(sConfig->SamplingTime, sConfig->Channel);
 80020ce:	688a      	ldr	r2, [r1, #8]
 80020d0:	68dd      	ldr	r5, [r3, #12]
 80020d2:	fa02 f20e 	lsl.w	r2, r2, lr
 80020d6:	432a      	orrs	r2, r5
 80020d8:	60da      	str	r2, [r3, #12]
  if (sConfig->Rank < 7U)
 80020da:	684a      	ldr	r2, [r1, #4]
 80020dc:	2a06      	cmp	r2, #6
 80020de:	d9cf      	bls.n	8002080 <HAL_ADC_ConfigChannel+0x48>
  else if (sConfig->Rank < 13U)
 80020e0:	2a0c      	cmp	r2, #12
    hadc->Instance->SQR2 &= ~ADC_SQR2_RK(ADC_SQR2_SQ7, sConfig->Rank);
 80020e2:	eb02 0282 	add.w	r2, r2, r2, lsl #2
  else if (sConfig->Rank < 13U)
 80020e6:	d832      	bhi.n	800214e <HAL_ADC_ConfigChannel+0x116>
    hadc->Instance->SQR2 &= ~ADC_SQR2_RK(ADC_SQR2_SQ7, sConfig->Rank);
 80020e8:	6b19      	ldr	r1, [r3, #48]	; 0x30
 80020ea:	3a23      	subs	r2, #35	; 0x23
 80020ec:	251f      	movs	r5, #31
    hadc->Instance->SQR2 |= ADC_SQR2_RK(sConfig->Channel, sConfig->Rank);
 80020ee:	fa0c fc02 	lsl.w	ip, ip, r2
    hadc->Instance->SQR2 &= ~ADC_SQR2_RK(ADC_SQR2_SQ7, sConfig->Rank);
 80020f2:	fa05 f202 	lsl.w	r2, r5, r2
 80020f6:	ea21 0202 	bic.w	r2, r1, r2
 80020fa:	631a      	str	r2, [r3, #48]	; 0x30
    hadc->Instance->SQR2 |= ADC_SQR2_RK(sConfig->Channel, sConfig->Rank);
 80020fc:	6b1a      	ldr	r2, [r3, #48]	; 0x30
 80020fe:	ea4c 0202 	orr.w	r2, ip, r2
 8002102:	631a      	str	r2, [r3, #48]	; 0x30
  if ((hadc->Instance == ADC1) && (sConfig->Channel == ADC_CHANNEL_VBAT))
 8002104:	4a26      	ldr	r2, [pc, #152]	; (80021a0 <HAL_ADC_ConfigChannel+0x168>)
 8002106:	4293      	cmp	r3, r2
 8002108:	d1ce      	bne.n	80020a8 <HAL_ADC_ConfigChannel+0x70>
 800210a:	2c12      	cmp	r4, #18
 800210c:	d02e      	beq.n	800216c <HAL_ADC_ConfigChannel+0x134>
  if ((hadc->Instance == ADC1) && ((sConfig->Channel == ADC_CHANNEL_TEMPSENSOR) || (sConfig->Channel == ADC_CHANNEL_VREFINT)))
 800210e:	4b25      	ldr	r3, [pc, #148]	; (80021a4 <HAL_ADC_ConfigChannel+0x16c>)
 8002110:	429c      	cmp	r4, r3
 8002112:	d138      	bne.n	8002186 <HAL_ADC_ConfigChannel+0x14e>
      tmpADC_Common->CCR &= ~ADC_CCR_VBATE;
 8002114:	4a24      	ldr	r2, [pc, #144]	; (80021a8 <HAL_ADC_ConfigChannel+0x170>)
      counter = (ADC_TEMPSENSOR_DELAY_US * (SystemCoreClock / 1000000U));
 8002116:	4b25      	ldr	r3, [pc, #148]	; (80021ac <HAL_ADC_ConfigChannel+0x174>)
      tmpADC_Common->CCR &= ~ADC_CCR_VBATE;
 8002118:	6851      	ldr	r1, [r2, #4]
      counter = (ADC_TEMPSENSOR_DELAY_US * (SystemCoreClock / 1000000U));
 800211a:	4c25      	ldr	r4, [pc, #148]	; (80021b0 <HAL_ADC_ConfigChannel+0x178>)
      tmpADC_Common->CCR &= ~ADC_CCR_VBATE;
 800211c:	f421 0180 	bic.w	r1, r1, #4194304	; 0x400000
 8002120:	6051      	str	r1, [r2, #4]
    tmpADC_Common->CCR |= ADC_CCR_TSVREFE;
 8002122:	6851      	ldr	r1, [r2, #4]
 8002124:	f441 0100 	orr.w	r1, r1, #8388608	; 0x800000
 8002128:	6051      	str	r1, [r2, #4]
      counter = (ADC_TEMPSENSOR_DELAY_US * (SystemCoreClock / 1000000U));
 800212a:	681b      	ldr	r3, [r3, #0]
 800212c:	fba4 2303 	umull	r2, r3, r4, r3
 8002130:	0c9b      	lsrs	r3, r3, #18
 8002132:	eb03 0383 	add.w	r3, r3, r3, lsl #2
 8002136:	005b      	lsls	r3, r3, #1
 8002138:	9301      	str	r3, [sp, #4]
      while(counter != 0U)
 800213a:	9b01      	ldr	r3, [sp, #4]
 800213c:	2b00      	cmp	r3, #0
 800213e:	d0b3      	beq.n	80020a8 <HAL_ADC_ConfigChannel+0x70>
        counter--;
 8002140:	9b01      	ldr	r3, [sp, #4]
 8002142:	3b01      	subs	r3, #1
 8002144:	9301      	str	r3, [sp, #4]
      while(counter != 0U)
 8002146:	9b01      	ldr	r3, [sp, #4]
 8002148:	2b00      	cmp	r3, #0
 800214a:	d1f9      	bne.n	8002140 <HAL_ADC_ConfigChannel+0x108>
 800214c:	e7ac      	b.n	80020a8 <HAL_ADC_ConfigChannel+0x70>
    hadc->Instance->SQR1 &= ~ADC_SQR1_RK(ADC_SQR1_SQ13, sConfig->Rank);
 800214e:	6ad9      	ldr	r1, [r3, #44]	; 0x2c
 8002150:	3a41      	subs	r2, #65	; 0x41
 8002152:	251f      	movs	r5, #31
    hadc->Instance->SQR1 |= ADC_SQR1_RK(sConfig->Channel, sConfig->Rank);
 8002154:	fa0c fc02 	lsl.w	ip, ip, r2
    hadc->Instance->SQR1 &= ~ADC_SQR1_RK(ADC_SQR1_SQ13, sConfig->Rank);
 8002158:	fa05 f202 	lsl.w	r2, r5, r2
 800215c:	ea21 0202 	bic.w	r2, r1, r2
 8002160:	62da      	str	r2, [r3, #44]	; 0x2c
    hadc->Instance->SQR1 |= ADC_SQR1_RK(sConfig->Channel, sConfig->Rank);
 8002162:	6ada      	ldr	r2, [r3, #44]	; 0x2c
 8002164:	ea4c 0202 	orr.w	r2, ip, r2
 8002168:	62da      	str	r2, [r3, #44]	; 0x2c
 800216a:	e79a      	b.n	80020a2 <HAL_ADC_ConfigChannel+0x6a>
      tmpADC_Common->CCR &= ~ADC_CCR_TSVREFE;
 800216c:	4b0e      	ldr	r3, [pc, #56]	; (80021a8 <HAL_ADC_ConfigChannel+0x170>)
 800216e:	685a      	ldr	r2, [r3, #4]
 8002170:	f422 0200 	bic.w	r2, r2, #8388608	; 0x800000
 8002174:	605a      	str	r2, [r3, #4]
    tmpADC_Common->CCR |= ADC_CCR_VBATE;
 8002176:	685a      	ldr	r2, [r3, #4]
 8002178:	f442 0280 	orr.w	r2, r2, #4194304	; 0x400000
 800217c:	605a      	str	r2, [r3, #4]
 800217e:	e793      	b.n	80020a8 <HAL_ADC_ConfigChannel+0x70>
  __HAL_LOCK(hadc);
 8002180:	2002      	movs	r0, #2
}
 8002182:	b003      	add	sp, #12
 8002184:	bd30      	pop	{r4, r5, pc}
  if ((hadc->Instance == ADC1) && ((sConfig->Channel == ADC_CHANNEL_TEMPSENSOR) || (sConfig->Channel == ADC_CHANNEL_VREFINT)))
 8002186:	2c11      	cmp	r4, #17
 8002188:	d18e      	bne.n	80020a8 <HAL_ADC_ConfigChannel+0x70>
      tmpADC_Common->CCR &= ~ADC_CCR_VBATE;
 800218a:	4b07      	ldr	r3, [pc, #28]	; (80021a8 <HAL_ADC_ConfigChannel+0x170>)
 800218c:	685a      	ldr	r2, [r3, #4]
 800218e:	f422 0280 	bic.w	r2, r2, #4194304	; 0x400000
 8002192:	605a      	str	r2, [r3, #4]
    tmpADC_Common->CCR |= ADC_CCR_TSVREFE;
 8002194:	685a      	ldr	r2, [r3, #4]
 8002196:	f442 0200 	orr.w	r2, r2, #8388608	; 0x800000
 800219a:	605a      	str	r2, [r3, #4]
 800219c:	e784      	b.n	80020a8 <HAL_ADC_ConfigChannel+0x70>
 800219e:	bf00      	nop
 80021a0:	40012000 	.word	0x40012000
 80021a4:	10000012 	.word	0x10000012
 80021a8:	40012300 	.word	0x40012300
 80021ac:	20000030 	.word	0x20000030
 80021b0:	431bde83 	.word	0x431bde83

080021b4 <HAL_NVIC_SetPriorityGrouping>:
__STATIC_INLINE void __NVIC_SetPriorityGrouping(uint32_t PriorityGroup)
{
  uint32_t reg_value;
  uint32_t PriorityGroupTmp = (PriorityGroup & (uint32_t)0x07UL);             /* only values 0..7 are used          */

  reg_value  =  SCB->AIRCR;                                                   /* read old register configuration    */
 80021b4:	4907      	ldr	r1, [pc, #28]	; (80021d4 <HAL_NVIC_SetPriorityGrouping+0x20>)
 80021b6:	68ca      	ldr	r2, [r1, #12]
  reg_value &= ~((uint32_t)(SCB_AIRCR_VECTKEY_Msk | SCB_AIRCR_PRIGROUP_Msk)); /* clear bits to change               */
  reg_value  =  (reg_value                                   |
                ((uint32_t)0x5FAUL << SCB_AIRCR_VECTKEY_Pos) |
                (PriorityGroupTmp << SCB_AIRCR_PRIGROUP_Pos)  );              /* Insert write key and priority group */
 80021b8:	0203      	lsls	r3, r0, #8
  reg_value &= ~((uint32_t)(SCB_AIRCR_VECTKEY_Msk | SCB_AIRCR_PRIGROUP_Msk)); /* clear bits to change               */
 80021ba:	f64f 00ff 	movw	r0, #63743	; 0xf8ff
                (PriorityGroupTmp << SCB_AIRCR_PRIGROUP_Pos)  );              /* Insert write key and priority group */
 80021be:	f403 63e0 	and.w	r3, r3, #1792	; 0x700
  reg_value &= ~((uint32_t)(SCB_AIRCR_VECTKEY_Msk | SCB_AIRCR_PRIGROUP_Msk)); /* clear bits to change               */
 80021c2:	4002      	ands	r2, r0
                ((uint32_t)0x5FAUL << SCB_AIRCR_VECTKEY_Pos) |
 80021c4:	4313      	orrs	r3, r2
  reg_value  =  (reg_value                                   |
 80021c6:	f043 63bf 	orr.w	r3, r3, #100139008	; 0x5f80000
 80021ca:	f443 3300 	orr.w	r3, r3, #131072	; 0x20000
  SCB->AIRCR =  reg_value;
 80021ce:	60cb      	str	r3, [r1, #12]
  /* Check the parameters */
  assert_param(IS_NVIC_PRIORITY_GROUP(PriorityGroup));
  
  /* Set the PRIGROUP[10:8] bits according to the PriorityGroup parameter value */
  NVIC_SetPriorityGrouping(PriorityGroup);
}
 80021d0:	4770      	bx	lr
 80021d2:	bf00      	nop
 80021d4:	e000ed00 	.word	0xe000ed00

080021d8 <HAL_NVIC_SetPriority>:
  \details Reads the priority grouping field from the NVIC Interrupt Controller.
  \return                Priority grouping field (SCB->AIRCR [10:8] PRIGROUP field).
 */
__STATIC_INLINE uint32_t __NVIC_GetPriorityGrouping(void)
{
  return ((uint32_t)((SCB->AIRCR & SCB_AIRCR_PRIGROUP_Msk) >> SCB_AIRCR_PRIGROUP_Pos));
 80021d8:	4b1c      	ldr	r3, [pc, #112]	; (800224c <HAL_NVIC_SetPriority+0x74>)
 80021da:	68db      	ldr	r3, [r3, #12]
 80021dc:	f3c3 2302 	ubfx	r3, r3, #8, #3
  *         This parameter can be a value between 0 and 15
  *         A lower priority value indicates a higher priority.          
  * @retval None
  */
void HAL_NVIC_SetPriority(IRQn_Type IRQn, uint32_t PreemptPriority, uint32_t SubPriority)
{ 
 80021e0:	b500      	push	{lr}
{
  uint32_t PriorityGroupTmp = (PriorityGroup & (uint32_t)0x07UL);   /* only values 0..7 are used          */
  uint32_t PreemptPriorityBits;
  uint32_t SubPriorityBits;

  PreemptPriorityBits = ((7UL - PriorityGroupTmp) > (uint32_t)(__NVIC_PRIO_BITS)) ? (uint32_t)(__NVIC_PRIO_BITS) : (uint32_t)(7UL - PriorityGroupTmp);
 80021e2:	f1c3 0e07 	rsb	lr, r3, #7
 80021e6:	f1be 0f04 	cmp.w	lr, #4
  SubPriorityBits     = ((PriorityGroupTmp + (uint32_t)(__NVIC_PRIO_BITS)) < (uint32_t)7UL) ? (uint32_t)0UL : (uint32_t)((PriorityGroupTmp - 7UL) + (uint32_t)(__NVIC_PRIO_BITS));
 80021ea:	f103 0c04 	add.w	ip, r3, #4
  PreemptPriorityBits = ((7UL - PriorityGroupTmp) > (uint32_t)(__NVIC_PRIO_BITS)) ? (uint32_t)(__NVIC_PRIO_BITS) : (uint32_t)(7UL - PriorityGroupTmp);
 80021ee:	bf28      	it	cs
 80021f0:	f04f 0e04 	movcs.w	lr, #4
  SubPriorityBits     = ((PriorityGroupTmp + (uint32_t)(__NVIC_PRIO_BITS)) < (uint32_t)7UL) ? (uint32_t)0UL : (uint32_t)((PriorityGroupTmp - 7UL) + (uint32_t)(__NVIC_PRIO_BITS));
 80021f4:	f1bc 0f06 	cmp.w	ip, #6
 80021f8:	d91b      	bls.n	8002232 <HAL_NVIC_SetPriority+0x5a>
 80021fa:	3b03      	subs	r3, #3

  return (
           ((PreemptPriority & (uint32_t)((1UL << (PreemptPriorityBits)) - 1UL)) << SubPriorityBits) |
           ((SubPriority     & (uint32_t)((1UL << (SubPriorityBits    )) - 1UL)))
 80021fc:	f04f 3cff 	mov.w	ip, #4294967295	; 0xffffffff
 8002200:	fa0c fc03 	lsl.w	ip, ip, r3
 8002204:	ea22 020c 	bic.w	r2, r2, ip
           ((PreemptPriority & (uint32_t)((1UL << (PreemptPriorityBits)) - 1UL)) << SubPriorityBits) |
 8002208:	f04f 3cff 	mov.w	ip, #4294967295	; 0xffffffff
 800220c:	fa0c fc0e 	lsl.w	ip, ip, lr
 8002210:	ea21 010c 	bic.w	r1, r1, ip
 8002214:	4099      	lsls	r1, r3
  if ((int32_t)(IRQn) >= 0)
 8002216:	2800      	cmp	r0, #0
           ((PreemptPriority & (uint32_t)((1UL << (PreemptPriorityBits)) - 1UL)) << SubPriorityBits) |
 8002218:	ea41 0102 	orr.w	r1, r1, r2
  if ((int32_t)(IRQn) >= 0)
 800221c:	db0c      	blt.n	8002238 <HAL_NVIC_SetPriority+0x60>
    NVIC->IP[((uint32_t)IRQn)]               = (uint8_t)((priority << (8U - __NVIC_PRIO_BITS)) & (uint32_t)0xFFUL);
 800221e:	f100 4060 	add.w	r0, r0, #3758096384	; 0xe0000000
 8002222:	0109      	lsls	r1, r1, #4
 8002224:	f500 4061 	add.w	r0, r0, #57600	; 0xe100
 8002228:	b2c9      	uxtb	r1, r1
 800222a:	f880 1300 	strb.w	r1, [r0, #768]	; 0x300
  assert_param(IS_NVIC_PREEMPTION_PRIORITY(PreemptPriority));
  
  prioritygroup = NVIC_GetPriorityGrouping();
  
  NVIC_SetPriority(IRQn, NVIC_EncodePriority(prioritygroup, PreemptPriority, SubPriority));
}
 800222e:	f85d fb04 	ldr.w	pc, [sp], #4
 8002232:	2200      	movs	r2, #0
  SubPriorityBits     = ((PriorityGroupTmp + (uint32_t)(__NVIC_PRIO_BITS)) < (uint32_t)7UL) ? (uint32_t)0UL : (uint32_t)((PriorityGroupTmp - 7UL) + (uint32_t)(__NVIC_PRIO_BITS));
 8002234:	4613      	mov	r3, r2
 8002236:	e7e7      	b.n	8002208 <HAL_NVIC_SetPriority+0x30>
    SCB->SHP[(((uint32_t)IRQn) & 0xFUL)-4UL] = (uint8_t)((priority << (8U - __NVIC_PRIO_BITS)) & (uint32_t)0xFFUL);
 8002238:	4b05      	ldr	r3, [pc, #20]	; (8002250 <HAL_NVIC_SetPriority+0x78>)
 800223a:	f000 000f 	and.w	r0, r0, #15
 800223e:	0109      	lsls	r1, r1, #4
 8002240:	4403      	add	r3, r0
 8002242:	b2c9      	uxtb	r1, r1
 8002244:	7619      	strb	r1, [r3, #24]
 8002246:	f85d fb04 	ldr.w	pc, [sp], #4
 800224a:	bf00      	nop
 800224c:	e000ed00 	.word	0xe000ed00
 8002250:	e000ecfc 	.word	0xe000ecfc

08002254 <HAL_NVIC_EnableIRQ>:
  if ((int32_t)(IRQn) >= 0)
 8002254:	2800      	cmp	r0, #0
 8002256:	db08      	blt.n	800226a <HAL_NVIC_EnableIRQ+0x16>
    NVIC->ISER[(((uint32_t)IRQn) >> 5UL)] = (uint32_t)(1UL << (((uint32_t)IRQn) & 0x1FUL));
 8002258:	0941      	lsrs	r1, r0, #5
 800225a:	4a04      	ldr	r2, [pc, #16]	; (800226c <HAL_NVIC_EnableIRQ+0x18>)
 800225c:	f000 001f 	and.w	r0, r0, #31
 8002260:	2301      	movs	r3, #1
 8002262:	fa03 f000 	lsl.w	r0, r3, r0
 8002266:	f842 0021 	str.w	r0, [r2, r1, lsl #2]
  /* Check the parameters */
  assert_param(IS_NVIC_DEVICE_IRQ(IRQn));
  
  /* Enable interrupt */
  NVIC_EnableIRQ(IRQn);
}
 800226a:	4770      	bx	lr
 800226c:	e000e100 	.word	0xe000e100

08002270 <HAL_SYSTICK_Config>:
           function <b>SysTick_Config</b> is not included. In this case, the file <b><i>device</i>.h</b>
           must contain a vendor-specific implementation of this function.
 */
__STATIC_INLINE uint32_t SysTick_Config(uint32_t ticks)
{
  if ((ticks - 1UL) > SysTick_LOAD_RELOAD_Msk)
 8002270:	3801      	subs	r0, #1
 8002272:	f1b0 7f80 	cmp.w	r0, #16777216	; 0x1000000
 8002276:	d210      	bcs.n	800229a <HAL_SYSTICK_Config+0x2a>
  * @param  TicksNumb Specifies the ticks Number of ticks between two interrupts.
  * @retval status:  - 0  Function succeeded.
  *                  - 1  Function failed.
  */
uint32_t HAL_SYSTICK_Config(uint32_t TicksNumb)
{
 8002278:	b410      	push	{r4}
  {
    return (1UL);                                                   /* Reload value impossible */
  }

  SysTick->LOAD  = (uint32_t)(ticks - 1UL);                         /* set reload register */
 800227a:	f04f 23e0 	mov.w	r3, #3758153728	; 0xe000e000
    SCB->SHP[(((uint32_t)IRQn) & 0xFUL)-4UL] = (uint8_t)((priority << (8U - __NVIC_PRIO_BITS)) & (uint32_t)0xFFUL);
 800227e:	4c08      	ldr	r4, [pc, #32]	; (80022a0 <HAL_SYSTICK_Config+0x30>)
  SysTick->LOAD  = (uint32_t)(ticks - 1UL);                         /* set reload register */
 8002280:	6158      	str	r0, [r3, #20]
    SCB->SHP[(((uint32_t)IRQn) & 0xFUL)-4UL] = (uint8_t)((priority << (8U - __NVIC_PRIO_BITS)) & (uint32_t)0xFFUL);
 8002282:	f04f 0cf0 	mov.w	ip, #240	; 0xf0
 8002286:	f884 c023 	strb.w	ip, [r4, #35]	; 0x23
  NVIC_SetPriority (SysTick_IRQn, (1UL << __NVIC_PRIO_BITS) - 1UL); /* set Priority for Systick Interrupt */
  SysTick->VAL   = 0UL;                                             /* Load the SysTick Counter Value */
 800228a:	2200      	movs	r2, #0
  SysTick->CTRL  = SysTick_CTRL_CLKSOURCE_Msk |
 800228c:	2107      	movs	r1, #7
                   SysTick_CTRL_TICKINT_Msk   |
                   SysTick_CTRL_ENABLE_Msk;                         /* Enable SysTick IRQ and SysTick Timer */
  return (0UL);                                                     /* Function successful */
 800228e:	4610      	mov	r0, r2
  SysTick->VAL   = 0UL;                                             /* Load the SysTick Counter Value */
 8002290:	619a      	str	r2, [r3, #24]
   return SysTick_Config(TicksNumb);
}
 8002292:	f85d 4b04 	ldr.w	r4, [sp], #4
  SysTick->CTRL  = SysTick_CTRL_CLKSOURCE_Msk |
 8002296:	6119      	str	r1, [r3, #16]
 8002298:	4770      	bx	lr
    return (1UL);                                                   /* Reload value impossible */
 800229a:	2001      	movs	r0, #1
 800229c:	4770      	bx	lr
 800229e:	bf00      	nop
 80022a0:	e000ed00 	.word	0xe000ed00

080022a4 <FLASH_SetErrorCode>:
  * @brief  Set the specific FLASH error flag.
  * @retval None
  */
static void FLASH_SetErrorCode(void)
{ 
  if(__HAL_FLASH_GET_FLAG(FLASH_FLAG_WRPERR) != RESET)
 80022a4:	4b21      	ldr	r3, [pc, #132]	; (800232c <FLASH_SetErrorCode+0x88>)
 80022a6:	68da      	ldr	r2, [r3, #12]
 80022a8:	06d0      	lsls	r0, r2, #27
 80022aa:	d505      	bpl.n	80022b8 <FLASH_SetErrorCode+0x14>
  {
   pFlash.ErrorCode |= HAL_FLASH_ERROR_WRP;
 80022ac:	4920      	ldr	r1, [pc, #128]	; (8002330 <FLASH_SetErrorCode+0x8c>)
 80022ae:	69ca      	ldr	r2, [r1, #28]
   
   /* Clear FLASH write protection error pending bit */
   __HAL_FLASH_CLEAR_FLAG(FLASH_FLAG_WRPERR);
 80022b0:	2010      	movs	r0, #16
   pFlash.ErrorCode |= HAL_FLASH_ERROR_WRP;
 80022b2:	4302      	orrs	r2, r0
 80022b4:	61ca      	str	r2, [r1, #28]
   __HAL_FLASH_CLEAR_FLAG(FLASH_FLAG_WRPERR);
 80022b6:	60d8      	str	r0, [r3, #12]
  }
  
  if(__HAL_FLASH_GET_FLAG(FLASH_FLAG_PGAERR) != RESET)
 80022b8:	4b1c      	ldr	r3, [pc, #112]	; (800232c <FLASH_SetErrorCode+0x88>)
 80022ba:	68da      	ldr	r2, [r3, #12]
 80022bc:	0691      	lsls	r1, r2, #26
 80022be:	d506      	bpl.n	80022ce <FLASH_SetErrorCode+0x2a>
  {
   pFlash.ErrorCode |= HAL_FLASH_ERROR_PGA;
 80022c0:	491b      	ldr	r1, [pc, #108]	; (8002330 <FLASH_SetErrorCode+0x8c>)
 80022c2:	69ca      	ldr	r2, [r1, #28]
   
   /* Clear FLASH Programming alignment error pending bit */
   __HAL_FLASH_CLEAR_FLAG(FLASH_FLAG_PGAERR);
 80022c4:	2020      	movs	r0, #32
   pFlash.ErrorCode |= HAL_FLASH_ERROR_PGA;
 80022c6:	f042 0208 	orr.w	r2, r2, #8
 80022ca:	61ca      	str	r2, [r1, #28]
   __HAL_FLASH_CLEAR_FLAG(FLASH_FLAG_PGAERR);
 80022cc:	60d8      	str	r0, [r3, #12]
  }
  
  if(__HAL_FLASH_GET_FLAG(FLASH_FLAG_PGPERR) != RESET)
 80022ce:	4b17      	ldr	r3, [pc, #92]	; (800232c <FLASH_SetErrorCode+0x88>)
 80022d0:	68da      	ldr	r2, [r3, #12]
 80022d2:	0652      	lsls	r2, r2, #25
 80022d4:	d506      	bpl.n	80022e4 <FLASH_SetErrorCode+0x40>
  {
    pFlash.ErrorCode |= HAL_FLASH_ERROR_PGP;
 80022d6:	4916      	ldr	r1, [pc, #88]	; (8002330 <FLASH_SetErrorCode+0x8c>)
 80022d8:	69ca      	ldr	r2, [r1, #28]
    
    /* Clear FLASH Programming parallelism error pending bit */
    __HAL_FLASH_CLEAR_FLAG(FLASH_FLAG_PGPERR);
 80022da:	2040      	movs	r0, #64	; 0x40
    pFlash.ErrorCode |= HAL_FLASH_ERROR_PGP;
 80022dc:	f042 0204 	orr.w	r2, r2, #4
 80022e0:	61ca      	str	r2, [r1, #28]
    __HAL_FLASH_CLEAR_FLAG(FLASH_FLAG_PGPERR);
 80022e2:	60d8      	str	r0, [r3, #12]
  }
  
  if(__HAL_FLASH_GET_FLAG(FLASH_FLAG_PGSERR) != RESET)
 80022e4:	4b11      	ldr	r3, [pc, #68]	; (800232c <FLASH_SetErrorCode+0x88>)
 80022e6:	68da      	ldr	r2, [r3, #12]
 80022e8:	0610      	lsls	r0, r2, #24
 80022ea:	d506      	bpl.n	80022fa <FLASH_SetErrorCode+0x56>
  {
    pFlash.ErrorCode |= HAL_FLASH_ERROR_PGS;
 80022ec:	4910      	ldr	r1, [pc, #64]	; (8002330 <FLASH_SetErrorCode+0x8c>)
 80022ee:	69ca      	ldr	r2, [r1, #28]
    
    /* Clear FLASH Programming sequence error pending bit */
    __HAL_FLASH_CLEAR_FLAG(FLASH_FLAG_PGSERR);
 80022f0:	2080      	movs	r0, #128	; 0x80
    pFlash.ErrorCode |= HAL_FLASH_ERROR_PGS;
 80022f2:	f042 0202 	orr.w	r2, r2, #2
 80022f6:	61ca      	str	r2, [r1, #28]
    __HAL_FLASH_CLEAR_FLAG(FLASH_FLAG_PGSERR);
 80022f8:	60d8      	str	r0, [r3, #12]
  }
#if defined(FLASH_SR_RDERR) 
  if(__HAL_FLASH_GET_FLAG(FLASH_FLAG_RDERR) != RESET)
 80022fa:	4b0c      	ldr	r3, [pc, #48]	; (800232c <FLASH_SetErrorCode+0x88>)
 80022fc:	68da      	ldr	r2, [r3, #12]
 80022fe:	05d1      	lsls	r1, r2, #23
 8002300:	d507      	bpl.n	8002312 <FLASH_SetErrorCode+0x6e>
  {
    pFlash.ErrorCode |= HAL_FLASH_ERROR_RD;
 8002302:	490b      	ldr	r1, [pc, #44]	; (8002330 <FLASH_SetErrorCode+0x8c>)
 8002304:	69ca      	ldr	r2, [r1, #28]
    
    /* Clear FLASH Proprietary readout protection error pending bit */
    __HAL_FLASH_CLEAR_FLAG(FLASH_FLAG_RDERR);
 8002306:	f44f 7080 	mov.w	r0, #256	; 0x100
    pFlash.ErrorCode |= HAL_FLASH_ERROR_RD;
 800230a:	f042 0201 	orr.w	r2, r2, #1
 800230e:	61ca      	str	r2, [r1, #28]
    __HAL_FLASH_CLEAR_FLAG(FLASH_FLAG_RDERR);
 8002310:	60d8      	str	r0, [r3, #12]
  }
#endif /* FLASH_SR_RDERR */  
  if(__HAL_FLASH_GET_FLAG(FLASH_FLAG_OPERR) != RESET)
 8002312:	4b06      	ldr	r3, [pc, #24]	; (800232c <FLASH_SetErrorCode+0x88>)
 8002314:	68da      	ldr	r2, [r3, #12]
 8002316:	0792      	lsls	r2, r2, #30
 8002318:	d506      	bpl.n	8002328 <FLASH_SetErrorCode+0x84>
  {
    pFlash.ErrorCode |= HAL_FLASH_ERROR_OPERATION;
 800231a:	4905      	ldr	r1, [pc, #20]	; (8002330 <FLASH_SetErrorCode+0x8c>)
 800231c:	69ca      	ldr	r2, [r1, #28]
    
    /* Clear FLASH Operation error pending bit */
    __HAL_FLASH_CLEAR_FLAG(FLASH_FLAG_OPERR);
 800231e:	2002      	movs	r0, #2
    pFlash.ErrorCode |= HAL_FLASH_ERROR_OPERATION;
 8002320:	f042 0220 	orr.w	r2, r2, #32
 8002324:	61ca      	str	r2, [r1, #28]
    __HAL_FLASH_CLEAR_FLAG(FLASH_FLAG_OPERR);
 8002326:	60d8      	str	r0, [r3, #12]
  }
}
 8002328:	4770      	bx	lr
 800232a:	bf00      	nop
 800232c:	40023c00 	.word	0x40023c00
 8002330:	200003c0 	.word	0x200003c0

08002334 <HAL_FLASH_Program>:
{
 8002334:	e92d 4ff8 	stmdb	sp!, {r3, r4, r5, r6, r7, r8, r9, sl, fp, lr}
  __HAL_LOCK(&pFlash);
 8002338:	4f4d      	ldr	r7, [pc, #308]	; (8002470 <HAL_FLASH_Program+0x13c>)
{
 800233a:	469b      	mov	fp, r3
  __HAL_LOCK(&pFlash);
 800233c:	7e3b      	ldrb	r3, [r7, #24]
 800233e:	2b01      	cmp	r3, #1
 8002340:	d060      	beq.n	8002404 <HAL_FLASH_Program+0xd0>
 8002342:	2301      	movs	r3, #1
 8002344:	763b      	strb	r3, [r7, #24]
  pFlash.ErrorCode = HAL_FLASH_ERROR_NONE;
 8002346:	2300      	movs	r3, #0
 8002348:	4681      	mov	r9, r0
 800234a:	468a      	mov	sl, r1
 800234c:	4690      	mov	r8, r2
 800234e:	61fb      	str	r3, [r7, #28]
  tickstart = HAL_GetTick();
 8002350:	f7ff fdac 	bl	8001eac <HAL_GetTick>
  while(__HAL_FLASH_GET_FLAG(FLASH_FLAG_BSY) != RESET) 
 8002354:	4d47      	ldr	r5, [pc, #284]	; (8002474 <HAL_FLASH_Program+0x140>)
  tickstart = HAL_GetTick();
 8002356:	4604      	mov	r4, r0
      if((Timeout == 0U)||((HAL_GetTick() - tickstart ) > Timeout))
 8002358:	f24c 3650 	movw	r6, #50000	; 0xc350
  while(__HAL_FLASH_GET_FLAG(FLASH_FLAG_BSY) != RESET) 
 800235c:	e004      	b.n	8002368 <HAL_FLASH_Program+0x34>
      if((Timeout == 0U)||((HAL_GetTick() - tickstart ) > Timeout))
 800235e:	f7ff fda5 	bl	8001eac <HAL_GetTick>
 8002362:	1b00      	subs	r0, r0, r4
 8002364:	42b0      	cmp	r0, r6
 8002366:	d848      	bhi.n	80023fa <HAL_FLASH_Program+0xc6>
  while(__HAL_FLASH_GET_FLAG(FLASH_FLAG_BSY) != RESET) 
 8002368:	68eb      	ldr	r3, [r5, #12]
 800236a:	03d8      	lsls	r0, r3, #15
 800236c:	d4f7      	bmi.n	800235e <HAL_FLASH_Program+0x2a>
  if (__HAL_FLASH_GET_FLAG(FLASH_FLAG_EOP) != RESET)
 800236e:	68eb      	ldr	r3, [r5, #12]
 8002370:	07d9      	lsls	r1, r3, #31
    __HAL_FLASH_CLEAR_FLAG(FLASH_FLAG_EOP);
 8002372:	bf44      	itt	mi
 8002374:	2301      	movmi	r3, #1
 8002376:	60eb      	strmi	r3, [r5, #12]
  if(__HAL_FLASH_GET_FLAG((FLASH_FLAG_OPERR | FLASH_FLAG_WRPERR | FLASH_FLAG_PGAERR | \
 8002378:	4b3e      	ldr	r3, [pc, #248]	; (8002474 <HAL_FLASH_Program+0x140>)
 800237a:	68da      	ldr	r2, [r3, #12]
 800237c:	f412 7ff9 	tst.w	r2, #498	; 0x1f2
 8002380:	d154      	bne.n	800242c <HAL_FLASH_Program+0xf8>
    if(TypeProgram == FLASH_TYPEPROGRAM_BYTE)
 8002382:	f1b9 0f00 	cmp.w	r9, #0
 8002386:	d040      	beq.n	800240a <HAL_FLASH_Program+0xd6>
    else if(TypeProgram == FLASH_TYPEPROGRAM_HALFWORD)
 8002388:	f1b9 0f01 	cmp.w	r9, #1
  CLEAR_BIT(FLASH->CR, FLASH_CR_PSIZE);
 800238c:	691a      	ldr	r2, [r3, #16]
    else if(TypeProgram == FLASH_TYPEPROGRAM_HALFWORD)
 800238e:	d051      	beq.n	8002434 <HAL_FLASH_Program+0x100>
  CLEAR_BIT(FLASH->CR, FLASH_CR_PSIZE);
 8002390:	f422 7240 	bic.w	r2, r2, #768	; 0x300
 8002394:	611a      	str	r2, [r3, #16]
    else if(TypeProgram == FLASH_TYPEPROGRAM_WORD)
 8002396:	f1b9 0f02 	cmp.w	r9, #2
  FLASH->CR |= FLASH_PSIZE_WORD;
 800239a:	691a      	ldr	r2, [r3, #16]
    else if(TypeProgram == FLASH_TYPEPROGRAM_WORD)
 800239c:	d05e      	beq.n	800245c <HAL_FLASH_Program+0x128>
  FLASH->CR |= FLASH_PSIZE_DOUBLE_WORD;
 800239e:	f442 7240 	orr.w	r2, r2, #768	; 0x300
 80023a2:	611a      	str	r2, [r3, #16]
  FLASH->CR |= FLASH_CR_PG;
 80023a4:	691a      	ldr	r2, [r3, #16]
 80023a6:	f042 0201 	orr.w	r2, r2, #1
 80023aa:	611a      	str	r2, [r3, #16]
  *(__IO uint32_t*)Address = (uint32_t)Data;
 80023ac:	f8ca 8000 	str.w	r8, [sl]
           so that all instructions following the ISB are fetched from cache or memory,
           after the instruction has been completed.
 */
__STATIC_FORCEINLINE void __ISB(void)
{
  __ASM volatile ("isb 0xF":::"memory");
 80023b0:	f3bf 8f6f 	isb	sy
  *(__IO uint32_t*)(Address+4) = (uint32_t)(Data >> 32);
 80023b4:	f8ca b004 	str.w	fp, [sl, #4]
  pFlash.ErrorCode = HAL_FLASH_ERROR_NONE;
 80023b8:	2300      	movs	r3, #0
 80023ba:	61fb      	str	r3, [r7, #28]
  tickstart = HAL_GetTick();
 80023bc:	f7ff fd76 	bl	8001eac <HAL_GetTick>
  while(__HAL_FLASH_GET_FLAG(FLASH_FLAG_BSY) != RESET) 
 80023c0:	4d2c      	ldr	r5, [pc, #176]	; (8002474 <HAL_FLASH_Program+0x140>)
  tickstart = HAL_GetTick();
 80023c2:	4604      	mov	r4, r0
      if((Timeout == 0U)||((HAL_GetTick() - tickstart ) > Timeout))
 80023c4:	f24c 3650 	movw	r6, #50000	; 0xc350
  while(__HAL_FLASH_GET_FLAG(FLASH_FLAG_BSY) != RESET) 
 80023c8:	e004      	b.n	80023d4 <HAL_FLASH_Program+0xa0>
      if((Timeout == 0U)||((HAL_GetTick() - tickstart ) > Timeout))
 80023ca:	f7ff fd6f 	bl	8001eac <HAL_GetTick>
 80023ce:	1b00      	subs	r0, r0, r4
 80023d0:	42b0      	cmp	r0, r6
 80023d2:	d829      	bhi.n	8002428 <HAL_FLASH_Program+0xf4>
  while(__HAL_FLASH_GET_FLAG(FLASH_FLAG_BSY) != RESET) 
 80023d4:	68eb      	ldr	r3, [r5, #12]
 80023d6:	03da      	lsls	r2, r3, #15
 80023d8:	d4f7      	bmi.n	80023ca <HAL_FLASH_Program+0x96>
  if (__HAL_FLASH_GET_FLAG(FLASH_FLAG_EOP) != RESET)
 80023da:	68eb      	ldr	r3, [r5, #12]
 80023dc:	07db      	lsls	r3, r3, #31
    __HAL_FLASH_CLEAR_FLAG(FLASH_FLAG_EOP);
 80023de:	bf44      	itt	mi
 80023e0:	2301      	movmi	r3, #1
 80023e2:	60eb      	strmi	r3, [r5, #12]
  if(__HAL_FLASH_GET_FLAG((FLASH_FLAG_OPERR | FLASH_FLAG_WRPERR | FLASH_FLAG_PGAERR | \
 80023e4:	4b23      	ldr	r3, [pc, #140]	; (8002474 <HAL_FLASH_Program+0x140>)
 80023e6:	68d8      	ldr	r0, [r3, #12]
 80023e8:	f410 70f9 	ands.w	r0, r0, #498	; 0x1f2
 80023ec:	d132      	bne.n	8002454 <HAL_FLASH_Program+0x120>
    FLASH->CR &= (~FLASH_CR_PG);  
 80023ee:	4a21      	ldr	r2, [pc, #132]	; (8002474 <HAL_FLASH_Program+0x140>)
 80023f0:	6913      	ldr	r3, [r2, #16]
 80023f2:	f023 0301 	bic.w	r3, r3, #1
 80023f6:	6113      	str	r3, [r2, #16]
 80023f8:	e000      	b.n	80023fc <HAL_FLASH_Program+0xc8>
 80023fa:	2003      	movs	r0, #3
  __HAL_UNLOCK(&pFlash);
 80023fc:	2300      	movs	r3, #0
 80023fe:	763b      	strb	r3, [r7, #24]
}
 8002400:	e8bd 8ff8 	ldmia.w	sp!, {r3, r4, r5, r6, r7, r8, r9, sl, fp, pc}
  __HAL_LOCK(&pFlash);
 8002404:	2002      	movs	r0, #2
}
 8002406:	e8bd 8ff8 	ldmia.w	sp!, {r3, r4, r5, r6, r7, r8, r9, sl, fp, pc}
  CLEAR_BIT(FLASH->CR, FLASH_CR_PSIZE);
 800240a:	6919      	ldr	r1, [r3, #16]
 800240c:	f421 7140 	bic.w	r1, r1, #768	; 0x300
 8002410:	6119      	str	r1, [r3, #16]
  FLASH->CR |= FLASH_PSIZE_BYTE;
 8002412:	691a      	ldr	r2, [r3, #16]
 8002414:	611a      	str	r2, [r3, #16]
  FLASH->CR |= FLASH_CR_PG;
 8002416:	6919      	ldr	r1, [r3, #16]
      FLASH_Program_Byte(Address, (uint8_t) Data);
 8002418:	fa5f f888 	uxtb.w	r8, r8
  FLASH->CR |= FLASH_CR_PG;
 800241c:	f041 0101 	orr.w	r1, r1, #1
 8002420:	6119      	str	r1, [r3, #16]
  *(__IO uint8_t*)Address = Data;
 8002422:	f88a 8000 	strb.w	r8, [sl]
}
 8002426:	e7c7      	b.n	80023b8 <HAL_FLASH_Program+0x84>
        return HAL_TIMEOUT;
 8002428:	2003      	movs	r0, #3
 800242a:	e7e0      	b.n	80023ee <HAL_FLASH_Program+0xba>
    FLASH_SetErrorCode();
 800242c:	f7ff ff3a 	bl	80022a4 <FLASH_SetErrorCode>
    return HAL_ERROR;
 8002430:	2001      	movs	r0, #1
 8002432:	e7e3      	b.n	80023fc <HAL_FLASH_Program+0xc8>
  CLEAR_BIT(FLASH->CR, FLASH_CR_PSIZE);
 8002434:	f422 7240 	bic.w	r2, r2, #768	; 0x300
 8002438:	611a      	str	r2, [r3, #16]
  FLASH->CR |= FLASH_PSIZE_HALF_WORD;
 800243a:	691a      	ldr	r2, [r3, #16]
 800243c:	f442 7280 	orr.w	r2, r2, #256	; 0x100
 8002440:	611a      	str	r2, [r3, #16]
  FLASH->CR |= FLASH_CR_PG;
 8002442:	691a      	ldr	r2, [r3, #16]
      FLASH_Program_HalfWord(Address, (uint16_t) Data);
 8002444:	fa1f f888 	uxth.w	r8, r8
  FLASH->CR |= FLASH_CR_PG;
 8002448:	f042 0201 	orr.w	r2, r2, #1
 800244c:	611a      	str	r2, [r3, #16]
  *(__IO uint16_t*)Address = Data;
 800244e:	f8aa 8000 	strh.w	r8, [sl]
}
 8002452:	e7b1      	b.n	80023b8 <HAL_FLASH_Program+0x84>
    FLASH_SetErrorCode();
 8002454:	f7ff ff26 	bl	80022a4 <FLASH_SetErrorCode>
    return HAL_ERROR;
 8002458:	2001      	movs	r0, #1
 800245a:	e7c8      	b.n	80023ee <HAL_FLASH_Program+0xba>
  FLASH->CR |= FLASH_PSIZE_WORD;
 800245c:	f442 7200 	orr.w	r2, r2, #512	; 0x200
 8002460:	611a      	str	r2, [r3, #16]
  FLASH->CR |= FLASH_CR_PG;
 8002462:	691a      	ldr	r2, [r3, #16]
 8002464:	f042 0201 	orr.w	r2, r2, #1
 8002468:	611a      	str	r2, [r3, #16]
  *(__IO uint32_t*)Address = Data;
 800246a:	f8ca 8000 	str.w	r8, [sl]
}
 800246e:	e7a3      	b.n	80023b8 <HAL_FLASH_Program+0x84>
 8002470:	200003c0 	.word	0x200003c0
 8002474:	40023c00 	.word	0x40023c00

08002478 <HAL_FLASH_Unlock>:
  if(READ_BIT(FLASH->CR, FLASH_CR_LOCK) != RESET)
 8002478:	4b06      	ldr	r3, [pc, #24]	; (8002494 <HAL_FLASH_Unlock+0x1c>)
 800247a:	691a      	ldr	r2, [r3, #16]
 800247c:	2a00      	cmp	r2, #0
 800247e:	db01      	blt.n	8002484 <HAL_FLASH_Unlock+0xc>
  HAL_StatusTypeDef status = HAL_OK;
 8002480:	2000      	movs	r0, #0
}
 8002482:	4770      	bx	lr
    WRITE_REG(FLASH->KEYR, FLASH_KEY1);
 8002484:	4904      	ldr	r1, [pc, #16]	; (8002498 <HAL_FLASH_Unlock+0x20>)
    WRITE_REG(FLASH->KEYR, FLASH_KEY2);
 8002486:	4a05      	ldr	r2, [pc, #20]	; (800249c <HAL_FLASH_Unlock+0x24>)
    WRITE_REG(FLASH->KEYR, FLASH_KEY1);
 8002488:	6059      	str	r1, [r3, #4]
    WRITE_REG(FLASH->KEYR, FLASH_KEY2);
 800248a:	605a      	str	r2, [r3, #4]
    if(READ_BIT(FLASH->CR, FLASH_CR_LOCK) != RESET)
 800248c:	6918      	ldr	r0, [r3, #16]
  HAL_StatusTypeDef status = HAL_OK;
 800248e:	0fc0      	lsrs	r0, r0, #31
 8002490:	4770      	bx	lr
 8002492:	bf00      	nop
 8002494:	40023c00 	.word	0x40023c00
 8002498:	45670123 	.word	0x45670123
 800249c:	cdef89ab 	.word	0xcdef89ab

080024a0 <HAL_FLASH_Lock>:
  FLASH->CR |= FLASH_CR_LOCK;
 80024a0:	4a03      	ldr	r2, [pc, #12]	; (80024b0 <HAL_FLASH_Lock+0x10>)
 80024a2:	6913      	ldr	r3, [r2, #16]
 80024a4:	f043 4300 	orr.w	r3, r3, #2147483648	; 0x80000000
}
 80024a8:	2000      	movs	r0, #0
  FLASH->CR |= FLASH_CR_LOCK;
 80024aa:	6113      	str	r3, [r2, #16]
}
 80024ac:	4770      	bx	lr
 80024ae:	bf00      	nop
 80024b0:	40023c00 	.word	0x40023c00

080024b4 <HAL_GPIO_Init>:
  * @param  GPIO_Init pointer to a GPIO_InitTypeDef structure that contains
  *         the configuration information for the specified GPIO peripheral.
  * @retval None
  */
void HAL_GPIO_Init(GPIO_TypeDef  *GPIOx, GPIO_InitTypeDef *GPIO_Init)
{
 80024b4:	e92d 4ff0 	stmdb	sp!, {r4, r5, r6, r7, r8, r9, sl, fp, lr}
  for(position = 0U; position < GPIO_NUMBER; position++)
  {
    /* Get the IO position */
    ioposition = 0x01U << position;
    /* Get the current IO position */
    iocurrent = (uint32_t)(GPIO_Init->Pin) & ioposition;
 80024b8:	2200      	movs	r2, #0
 80024ba:	680c      	ldr	r4, [r1, #0]
        temp &= ~(0x0FU << (4U * (position & 0x03U)));
        temp |= ((uint32_t)(GPIO_GET_INDEX(GPIOx)) << (4U * (position & 0x03U)));
        SYSCFG->EXTICR[position >> 2U] = temp;

        /* Clear Rising Falling edge configuration */
        temp = EXTI->RTSR;
 80024bc:	4e70      	ldr	r6, [pc, #448]	; (8002680 <HAL_GPIO_Init+0x1cc>)
{
 80024be:	b085      	sub	sp, #20
  for(position = 0U; position < GPIO_NUMBER; position++)
 80024c0:	4613      	mov	r3, r2
    ioposition = 0x01U << position;
 80024c2:	f04f 0a01 	mov.w	sl, #1
        __HAL_RCC_SYSCFG_CLK_ENABLE();
 80024c6:	4689      	mov	r9, r1
 80024c8:	e004      	b.n	80024d4 <HAL_GPIO_Init+0x20>
  for(position = 0U; position < GPIO_NUMBER; position++)
 80024ca:	3301      	adds	r3, #1
 80024cc:	2b10      	cmp	r3, #16
 80024ce:	f102 0202 	add.w	r2, r2, #2
 80024d2:	d078      	beq.n	80025c6 <HAL_GPIO_Init+0x112>
    ioposition = 0x01U << position;
 80024d4:	fa0a f103 	lsl.w	r1, sl, r3
    iocurrent = (uint32_t)(GPIO_Init->Pin) & ioposition;
 80024d8:	ea01 0b04 	and.w	fp, r1, r4
    if(iocurrent == ioposition)
 80024dc:	43a1      	bics	r1, r4
 80024de:	d1f4      	bne.n	80024ca <HAL_GPIO_Init+0x16>
      if(((GPIO_Init->Mode & GPIO_MODE) == MODE_OUTPUT) || \
 80024e0:	f8d9 c004 	ldr.w	ip, [r9, #4]
 80024e4:	f00c 0103 	and.w	r1, ip, #3
 80024e8:	1e4d      	subs	r5, r1, #1
 80024ea:	2d01      	cmp	r5, #1
 80024ec:	d96e      	bls.n	80025cc <HAL_GPIO_Init+0x118>
      if((GPIO_Init->Mode & GPIO_MODE) != MODE_ANALOG)
 80024ee:	2903      	cmp	r1, #3
 80024f0:	f040 80ae 	bne.w	8002650 <HAL_GPIO_Init+0x19c>
        temp &= ~(GPIO_OSPEEDER_OSPEEDR0 << (position * 2U));
 80024f4:	4091      	lsls	r1, r2
 80024f6:	43cd      	mvns	r5, r1
      temp = GPIOx->MODER;
 80024f8:	6807      	ldr	r7, [r0, #0]
      temp &= ~(GPIO_MODER_MODER0 << (position * 2U));
 80024fa:	403d      	ands	r5, r7
      temp |= ((GPIO_Init->Mode & GPIO_MODE) << (position * 2U));
 80024fc:	4329      	orrs	r1, r5
      if((GPIO_Init->Mode & EXTI_MODE) != 0x00U)
 80024fe:	f41c 3f40 	tst.w	ip, #196608	; 0x30000
      GPIOx->MODER = temp;
 8002502:	6001      	str	r1, [r0, #0]
      if((GPIO_Init->Mode & EXTI_MODE) != 0x00U)
 8002504:	d0e1      	beq.n	80024ca <HAL_GPIO_Init+0x16>
        __HAL_RCC_SYSCFG_CLK_ENABLE();
 8002506:	4d5f      	ldr	r5, [pc, #380]	; (8002684 <HAL_GPIO_Init+0x1d0>)
 8002508:	2100      	movs	r1, #0
 800250a:	9103      	str	r1, [sp, #12]
 800250c:	6c69      	ldr	r1, [r5, #68]	; 0x44
 800250e:	f441 4180 	orr.w	r1, r1, #16384	; 0x4000
 8002512:	6469      	str	r1, [r5, #68]	; 0x44
 8002514:	6c69      	ldr	r1, [r5, #68]	; 0x44
 8002516:	f401 4180 	and.w	r1, r1, #16384	; 0x4000
 800251a:	9103      	str	r1, [sp, #12]
 800251c:	9903      	ldr	r1, [sp, #12]
 800251e:	f023 0103 	bic.w	r1, r3, #3
 8002522:	f101 4180 	add.w	r1, r1, #1073741824	; 0x40000000
 8002526:	f501 319c 	add.w	r1, r1, #79872	; 0x13800
        temp &= ~(0x0FU << (4U * (position & 0x03U)));
 800252a:	f003 0703 	and.w	r7, r3, #3
        temp = SYSCFG->EXTICR[position >> 2U];
 800252e:	f8d1 e008 	ldr.w	lr, [r1, #8]
        temp &= ~(0x0FU << (4U * (position & 0x03U)));
 8002532:	00bf      	lsls	r7, r7, #2
 8002534:	250f      	movs	r5, #15
 8002536:	40bd      	lsls	r5, r7
 8002538:	ea2e 0805 	bic.w	r8, lr, r5
        temp |= ((uint32_t)(GPIO_GET_INDEX(GPIOx)) << (4U * (position & 0x03U)));
 800253c:	4d52      	ldr	r5, [pc, #328]	; (8002688 <HAL_GPIO_Init+0x1d4>)
 800253e:	42a8      	cmp	r0, r5
 8002540:	d017      	beq.n	8002572 <HAL_GPIO_Init+0xbe>
 8002542:	f505 6580 	add.w	r5, r5, #1024	; 0x400
 8002546:	42a8      	cmp	r0, r5
 8002548:	f000 8086 	beq.w	8002658 <HAL_GPIO_Init+0x1a4>
 800254c:	4d4f      	ldr	r5, [pc, #316]	; (800268c <HAL_GPIO_Init+0x1d8>)
 800254e:	42a8      	cmp	r0, r5
 8002550:	f000 8087 	beq.w	8002662 <HAL_GPIO_Init+0x1ae>
 8002554:	4d4e      	ldr	r5, [pc, #312]	; (8002690 <HAL_GPIO_Init+0x1dc>)
 8002556:	42a8      	cmp	r0, r5
 8002558:	f000 808a 	beq.w	8002670 <HAL_GPIO_Init+0x1bc>
 800255c:	4d4d      	ldr	r5, [pc, #308]	; (8002694 <HAL_GPIO_Init+0x1e0>)
 800255e:	42a8      	cmp	r0, r5
 8002560:	bf0c      	ite	eq
 8002562:	f04f 0e04 	moveq.w	lr, #4
 8002566:	f04f 0e07 	movne.w	lr, #7
 800256a:	fa0e f707 	lsl.w	r7, lr, r7
 800256e:	ea48 0807 	orr.w	r8, r8, r7
        SYSCFG->EXTICR[position >> 2U] = temp;
 8002572:	f8c1 8008 	str.w	r8, [r1, #8]
        temp = EXTI->RTSR;
 8002576:	68b1      	ldr	r1, [r6, #8]
        temp &= ~((uint32_t)iocurrent);
 8002578:	ea6f 070b 	mvn.w	r7, fp
        if((GPIO_Init->Mode & TRIGGER_RISING) != 0x00U)
 800257c:	f41c 1f80 	tst.w	ip, #1048576	; 0x100000
        temp &= ~((uint32_t)iocurrent);
 8002580:	bf0c      	ite	eq
 8002582:	4039      	andeq	r1, r7
        {
          temp |= iocurrent;
 8002584:	ea4b 0101 	orrne.w	r1, fp, r1
        }
        EXTI->RTSR = temp;
 8002588:	60b1      	str	r1, [r6, #8]

        temp = EXTI->FTSR;
 800258a:	68f5      	ldr	r5, [r6, #12]
        temp &= ~((uint32_t)iocurrent);
        if((GPIO_Init->Mode & TRIGGER_FALLING) != 0x00U)
 800258c:	f41c 1f00 	tst.w	ip, #2097152	; 0x200000
        temp &= ~((uint32_t)iocurrent);
 8002590:	bf0c      	ite	eq
 8002592:	403d      	andeq	r5, r7
        {
          temp |= iocurrent;
 8002594:	ea4b 0505 	orrne.w	r5, fp, r5
        }
        EXTI->FTSR = temp;
 8002598:	60f5      	str	r5, [r6, #12]

        temp = EXTI->EMR;
 800259a:	6875      	ldr	r5, [r6, #4]
        temp &= ~((uint32_t)iocurrent);
        if((GPIO_Init->Mode & EXTI_EVT) != 0x00U)
 800259c:	f41c 3f00 	tst.w	ip, #131072	; 0x20000
        temp &= ~((uint32_t)iocurrent);
 80025a0:	bf0c      	ite	eq
 80025a2:	403d      	andeq	r5, r7
        {
          temp |= iocurrent;
 80025a4:	ea4b 0505 	orrne.w	r5, fp, r5
        }
        EXTI->EMR = temp;
 80025a8:	6075      	str	r5, [r6, #4]

        /* Clear EXTI line configuration */
        temp = EXTI->IMR;
 80025aa:	6831      	ldr	r1, [r6, #0]
        temp &= ~((uint32_t)iocurrent);
        if((GPIO_Init->Mode & EXTI_IT) != 0x00U)
 80025ac:	f41c 3f80 	tst.w	ip, #65536	; 0x10000
  for(position = 0U; position < GPIO_NUMBER; position++)
 80025b0:	f103 0301 	add.w	r3, r3, #1
        temp &= ~((uint32_t)iocurrent);
 80025b4:	bf0c      	ite	eq
 80025b6:	4039      	andeq	r1, r7
        {
          temp |= iocurrent;
 80025b8:	ea4b 0101 	orrne.w	r1, fp, r1
  for(position = 0U; position < GPIO_NUMBER; position++)
 80025bc:	2b10      	cmp	r3, #16
        }
        EXTI->IMR = temp;
 80025be:	6031      	str	r1, [r6, #0]
  for(position = 0U; position < GPIO_NUMBER; position++)
 80025c0:	f102 0202 	add.w	r2, r2, #2
 80025c4:	d186      	bne.n	80024d4 <HAL_GPIO_Init+0x20>
      }
    }
  }
}
 80025c6:	b005      	add	sp, #20
 80025c8:	e8bd 8ff0 	ldmia.w	sp!, {r4, r5, r6, r7, r8, r9, sl, fp, pc}
        temp |= (GPIO_Init->Speed << (position * 2U));
 80025cc:	f8d9 500c 	ldr.w	r5, [r9, #12]
        temp = GPIOx->OSPEEDR; 
 80025d0:	6887      	ldr	r7, [r0, #8]
        temp |= (GPIO_Init->Speed << (position * 2U));
 80025d2:	fa05 f802 	lsl.w	r8, r5, r2
        temp &= ~(GPIO_OSPEEDER_OSPEEDR0 << (position * 2U));
 80025d6:	2503      	movs	r5, #3
 80025d8:	fa05 fe02 	lsl.w	lr, r5, r2
 80025dc:	ea27 070e 	bic.w	r7, r7, lr
        temp |= (GPIO_Init->Speed << (position * 2U));
 80025e0:	ea48 0707 	orr.w	r7, r8, r7
        GPIOx->OSPEEDR = temp;
 80025e4:	6087      	str	r7, [r0, #8]
        temp = GPIOx->OTYPER;
 80025e6:	6847      	ldr	r7, [r0, #4]
        temp &= ~(GPIO_OSPEEDER_OSPEEDR0 << (position * 2U));
 80025e8:	ea6f 050e 	mvn.w	r5, lr
        temp &= ~(GPIO_OTYPER_OT_0 << position) ;
 80025ec:	ea27 0e0b 	bic.w	lr, r7, fp
        temp |= (((GPIO_Init->Mode & OUTPUT_TYPE) >> OUTPUT_TYPE_Pos) << position);
 80025f0:	f3cc 1700 	ubfx	r7, ip, #4, #1
 80025f4:	409f      	lsls	r7, r3
 80025f6:	ea47 070e 	orr.w	r7, r7, lr
        GPIOx->OTYPER = temp;
 80025fa:	6047      	str	r7, [r0, #4]
        temp = GPIOx->PUPDR;
 80025fc:	68c7      	ldr	r7, [r0, #12]
        temp &= ~(GPIO_PUPDR_PUPDR0 << (position * 2U));
 80025fe:	ea07 0e05 	and.w	lr, r7, r5
        temp |= ((GPIO_Init->Pull) << (position * 2U));
 8002602:	f8d9 7008 	ldr.w	r7, [r9, #8]
 8002606:	4097      	lsls	r7, r2
 8002608:	ea47 070e 	orr.w	r7, r7, lr
      if((GPIO_Init->Mode & GPIO_MODE) == MODE_AF)
 800260c:	2902      	cmp	r1, #2
        GPIOx->PUPDR = temp;
 800260e:	60c7      	str	r7, [r0, #12]
 8002610:	fa01 f102 	lsl.w	r1, r1, r2
      if((GPIO_Init->Mode & GPIO_MODE) == MODE_AF)
 8002614:	f47f af70 	bne.w	80024f8 <HAL_GPIO_Init+0x44>
        temp = GPIOx->AFR[position >> 3U];
 8002618:	ea4f 0ed3 	mov.w	lr, r3, lsr #3
 800261c:	eb00 0e8e 	add.w	lr, r0, lr, lsl #2
        temp &= ~(0xFU << ((uint32_t)(position & 0x07U) * 4U)) ;
 8002620:	f003 0807 	and.w	r8, r3, #7
        temp = GPIOx->AFR[position >> 3U];
 8002624:	f8de 7020 	ldr.w	r7, [lr, #32]
 8002628:	9700      	str	r7, [sp, #0]
        temp |= ((uint32_t)(GPIO_Init->Alternate) << (((uint32_t)position & 0x07U) * 4U));
 800262a:	f8d9 7010 	ldr.w	r7, [r9, #16]
        temp &= ~(0xFU << ((uint32_t)(position & 0x07U) * 4U)) ;
 800262e:	ea4f 0888 	mov.w	r8, r8, lsl #2
        temp |= ((uint32_t)(GPIO_Init->Alternate) << (((uint32_t)position & 0x07U) * 4U));
 8002632:	fa07 f708 	lsl.w	r7, r7, r8
 8002636:	9701      	str	r7, [sp, #4]
        temp &= ~(0xFU << ((uint32_t)(position & 0x07U) * 4U)) ;
 8002638:	270f      	movs	r7, #15
 800263a:	fa07 f808 	lsl.w	r8, r7, r8
 800263e:	9f00      	ldr	r7, [sp, #0]
 8002640:	ea27 0808 	bic.w	r8, r7, r8
        temp |= ((uint32_t)(GPIO_Init->Alternate) << (((uint32_t)position & 0x07U) * 4U));
 8002644:	9f01      	ldr	r7, [sp, #4]
 8002646:	ea47 0708 	orr.w	r7, r7, r8
        GPIOx->AFR[position >> 3U] = temp;
 800264a:	f8ce 7020 	str.w	r7, [lr, #32]
 800264e:	e753      	b.n	80024f8 <HAL_GPIO_Init+0x44>
        temp &= ~(GPIO_OSPEEDER_OSPEEDR0 << (position * 2U));
 8002650:	2503      	movs	r5, #3
 8002652:	4095      	lsls	r5, r2
 8002654:	43ed      	mvns	r5, r5
 8002656:	e7d1      	b.n	80025fc <HAL_GPIO_Init+0x148>
        temp |= ((uint32_t)(GPIO_GET_INDEX(GPIOx)) << (4U * (position & 0x03U)));
 8002658:	fa0a f707 	lsl.w	r7, sl, r7
 800265c:	ea48 0807 	orr.w	r8, r8, r7
 8002660:	e787      	b.n	8002572 <HAL_GPIO_Init+0xbe>
 8002662:	f04f 0e02 	mov.w	lr, #2
 8002666:	fa0e f707 	lsl.w	r7, lr, r7
 800266a:	ea48 0807 	orr.w	r8, r8, r7
 800266e:	e780      	b.n	8002572 <HAL_GPIO_Init+0xbe>
 8002670:	f04f 0e03 	mov.w	lr, #3
 8002674:	fa0e f707 	lsl.w	r7, lr, r7
 8002678:	ea48 0807 	orr.w	r8, r8, r7
 800267c:	e779      	b.n	8002572 <HAL_GPIO_Init+0xbe>
 800267e:	bf00      	nop
 8002680:	40013c00 	.word	0x40013c00
 8002684:	40023800 	.word	0x40023800
 8002688:	40020000 	.word	0x40020000
 800268c:	40020800 	.word	0x40020800
 8002690:	40020c00 	.word	0x40020c00
 8002694:	40021000 	.word	0x40021000

08002698 <HAL_GPIO_WritePin>:
{
  /* Check the parameters */
  assert_param(IS_GPIO_PIN(GPIO_Pin));
  assert_param(IS_GPIO_PIN_ACTION(PinState));

  if(PinState != GPIO_PIN_RESET)
 8002698:	b902      	cbnz	r2, 800269c <HAL_GPIO_WritePin+0x4>
  {
    GPIOx->BSRR = GPIO_Pin;
  }
  else
  {
    GPIOx->BSRR = (uint32_t)GPIO_Pin << 16U;
 800269a:	0409      	lsls	r1, r1, #16
 800269c:	6181      	str	r1, [r0, #24]
  }
}
 800269e:	4770      	bx	lr

080026a0 <HAL_GPIO_EXTI_IRQHandler>:
  * @retval None
  */
void HAL_GPIO_EXTI_IRQHandler(uint16_t GPIO_Pin)
{
  /* EXTI line interrupt detected */
  if(__HAL_GPIO_EXTI_GET_IT(GPIO_Pin) != RESET)
 80026a0:	4a04      	ldr	r2, [pc, #16]	; (80026b4 <HAL_GPIO_EXTI_IRQHandler+0x14>)
 80026a2:	6951      	ldr	r1, [r2, #20]
 80026a4:	4201      	tst	r1, r0
 80026a6:	d100      	bne.n	80026aa <HAL_GPIO_EXTI_IRQHandler+0xa>
 80026a8:	4770      	bx	lr
{
 80026aa:	b508      	push	{r3, lr}
  {
    __HAL_GPIO_EXTI_CLEAR_IT(GPIO_Pin);
 80026ac:	6150      	str	r0, [r2, #20]
    HAL_GPIO_EXTI_Callback(GPIO_Pin);
 80026ae:	f7ff f9cb 	bl	8001a48 <HAL_GPIO_EXTI_Callback>
  }
}
 80026b2:	bd08      	pop	{r3, pc}
 80026b4:	40013c00 	.word	0x40013c00

080026b8 <HAL_I2C_Init>:
{
  uint32_t freqrange;
  uint32_t pclk1;

  /* Check the I2C handle allocation */
  if (hi2c == NULL)
 80026b8:	2800      	cmp	r0, #0
 80026ba:	f000 80b9 	beq.w	8002830 <HAL_I2C_Init+0x178>
{
 80026be:	b570      	push	{r4, r5, r6, lr}
  assert_param(IS_I2C_DUAL_ADDRESS(hi2c->Init.DualAddressMode));
  assert_param(IS_I2C_OWN_ADDRESS2(hi2c->Init.OwnAddress2));
  assert_param(IS_I2C_GENERAL_CALL(hi2c->Init.GeneralCallMode));
  assert_param(IS_I2C_NO_STRETCH(hi2c->Init.NoStretchMode));

  if (hi2c->State == HAL_I2C_STATE_RESET)
 80026c0:	f890 303d 	ldrb.w	r3, [r0, #61]	; 0x3d
 80026c4:	4604      	mov	r4, r0
 80026c6:	f003 02ff 	and.w	r2, r3, #255	; 0xff
 80026ca:	2b00      	cmp	r3, #0
 80026cc:	f000 8098 	beq.w	8002800 <HAL_I2C_Init+0x148>
  }

  hi2c->State = HAL_I2C_STATE_BUSY;

  /* Disable the selected I2C peripheral */
  __HAL_I2C_DISABLE(hi2c);
 80026d0:	6823      	ldr	r3, [r4, #0]
  hi2c->State = HAL_I2C_STATE_BUSY;
 80026d2:	2224      	movs	r2, #36	; 0x24
 80026d4:	f884 203d 	strb.w	r2, [r4, #61]	; 0x3d
  __HAL_I2C_DISABLE(hi2c);
 80026d8:	681a      	ldr	r2, [r3, #0]
 80026da:	f022 0201 	bic.w	r2, r2, #1
 80026de:	601a      	str	r2, [r3, #0]

  /*Reset I2C*/
  hi2c->Instance->CR1 |= I2C_CR1_SWRST;
 80026e0:	681a      	ldr	r2, [r3, #0]
 80026e2:	f442 4200 	orr.w	r2, r2, #32768	; 0x8000
 80026e6:	601a      	str	r2, [r3, #0]
  hi2c->Instance->CR1 &= ~I2C_CR1_SWRST;
 80026e8:	681a      	ldr	r2, [r3, #0]
 80026ea:	f422 4200 	bic.w	r2, r2, #32768	; 0x8000
 80026ee:	601a      	str	r2, [r3, #0]

  /* Get PCLK1 frequency */
  pclk1 = HAL_RCC_GetPCLK1Freq();
 80026f0:	f000 fcf2 	bl	80030d8 <HAL_RCC_GetPCLK1Freq>

  /* Check the minimum allowed PCLK1 frequency */
  if (I2C_MIN_PCLK_FREQ(pclk1, hi2c->Init.ClockSpeed) == 1U)
 80026f4:	6863      	ldr	r3, [r4, #4]
 80026f6:	494f      	ldr	r1, [pc, #316]	; (8002834 <HAL_I2C_Init+0x17c>)
 80026f8:	428b      	cmp	r3, r1
 80026fa:	d84f      	bhi.n	800279c <HAL_I2C_Init+0xe4>
 80026fc:	4a4e      	ldr	r2, [pc, #312]	; (8002838 <HAL_I2C_Init+0x180>)
 80026fe:	4290      	cmp	r0, r2
 8002700:	d97c      	bls.n	80027fc <HAL_I2C_Init+0x144>
  {
    return HAL_ERROR;
  }

  /* Calculate frequency range */
  freqrange = I2C_FREQRANGE(pclk1);
 8002702:	4d4e      	ldr	r5, [pc, #312]	; (800283c <HAL_I2C_Init+0x184>)
  /* Configure I2Cx: Rise Time */
  MODIFY_REG(hi2c->Instance->TRISE, I2C_TRISE_TRISE, I2C_RISE_TIME(freqrange, hi2c->Init.ClockSpeed));

  /*---------------------------- I2Cx CCR Configuration ----------------------*/
  /* Configure I2Cx: Speed */
  MODIFY_REG(hi2c->Instance->CCR, (I2C_CCR_FS | I2C_CCR_DUTY | I2C_CCR_CCR), I2C_SPEED(pclk1, hi2c->Init.ClockSpeed, hi2c->Init.DutyCycle));
 8002704:	005a      	lsls	r2, r3, #1
  freqrange = I2C_FREQRANGE(pclk1);
 8002706:	fba5 3500 	umull	r3, r5, r5, r0
  MODIFY_REG(hi2c->Instance->CCR, (I2C_CCR_FS | I2C_CCR_DUTY | I2C_CCR_CCR), I2C_SPEED(pclk1, hi2c->Init.ClockSpeed, hi2c->Init.DutyCycle));
 800270a:	1e43      	subs	r3, r0, #1
 800270c:	fbb3 f3f2 	udiv	r3, r3, r2
  MODIFY_REG(hi2c->Instance->CR2, I2C_CR2_FREQ, freqrange);
 8002710:	6822      	ldr	r2, [r4, #0]
 8002712:	6850      	ldr	r0, [r2, #4]
 8002714:	f020 003f 	bic.w	r0, r0, #63	; 0x3f
 8002718:	ea40 4095 	orr.w	r0, r0, r5, lsr #18
 800271c:	6050      	str	r0, [r2, #4]
  freqrange = I2C_FREQRANGE(pclk1);
 800271e:	0ca9      	lsrs	r1, r5, #18
  MODIFY_REG(hi2c->Instance->TRISE, I2C_TRISE_TRISE, I2C_RISE_TIME(freqrange, hi2c->Init.ClockSpeed));
 8002720:	f101 0c01 	add.w	ip, r1, #1
 8002724:	6a11      	ldr	r1, [r2, #32]
 8002726:	f021 013f 	bic.w	r1, r1, #63	; 0x3f
 800272a:	ea41 010c 	orr.w	r1, r1, ip
 800272e:	6211      	str	r1, [r2, #32]
  MODIFY_REG(hi2c->Instance->CCR, (I2C_CCR_FS | I2C_CCR_DUTY | I2C_CCR_CCR), I2C_SPEED(pclk1, hi2c->Init.ClockSpeed, hi2c->Init.DutyCycle));
 8002730:	69d1      	ldr	r1, [r2, #28]
 8002732:	f640 7efc 	movw	lr, #4092	; 0xffc
 8002736:	3301      	adds	r3, #1
 8002738:	f421 414f 	bic.w	r1, r1, #52992	; 0xcf00
 800273c:	ea13 0f0e 	tst.w	r3, lr
 8002740:	f021 01ff 	bic.w	r1, r1, #255	; 0xff
 8002744:	d161      	bne.n	800280a <HAL_I2C_Init+0x152>
 8002746:	2304      	movs	r3, #4
 8002748:	430b      	orrs	r3, r1
 800274a:	61d3      	str	r3, [r2, #28]

  /*---------------------------- I2Cx CR1 Configuration ----------------------*/
  /* Configure I2Cx: Generalcall and NoStretch mode */
  MODIFY_REG(hi2c->Instance->CR1, (I2C_CR1_ENGC | I2C_CR1_NOSTRETCH), (hi2c->Init.GeneralCallMode | hi2c->Init.NoStretchMode));
 800274c:	e9d4 3007 	ldrd	r3, r0, [r4, #28]
 8002750:	6811      	ldr	r1, [r2, #0]
 8002752:	4303      	orrs	r3, r0
 8002754:	f021 01c0 	bic.w	r1, r1, #192	; 0xc0
 8002758:	430b      	orrs	r3, r1
 800275a:	6013      	str	r3, [r2, #0]

  /*---------------------------- I2Cx OAR1 Configuration ---------------------*/
  /* Configure I2Cx: Own Address1 and addressing mode */
  MODIFY_REG(hi2c->Instance->OAR1, (I2C_OAR1_ADDMODE | I2C_OAR1_ADD8_9 | I2C_OAR1_ADD1_7 | I2C_OAR1_ADD0), (hi2c->Init.AddressingMode | hi2c->Init.OwnAddress1));
 800275c:	6891      	ldr	r1, [r2, #8]
 800275e:	e9d4 0303 	ldrd	r0, r3, [r4, #12]
 8002762:	f421 4103 	bic.w	r1, r1, #33536	; 0x8300
 8002766:	4303      	orrs	r3, r0
 8002768:	f021 01ff 	bic.w	r1, r1, #255	; 0xff
 800276c:	430b      	orrs	r3, r1
 800276e:	6093      	str	r3, [r2, #8]

  /*---------------------------- I2Cx OAR2 Configuration ---------------------*/
  /* Configure I2Cx: Dual mode and Own Address2 */
  MODIFY_REG(hi2c->Instance->OAR2, (I2C_OAR2_ENDUAL | I2C_OAR2_ADD2), (hi2c->Init.DualAddressMode | hi2c->Init.OwnAddress2));
 8002770:	e9d4 3005 	ldrd	r3, r0, [r4, #20]
 8002774:	68d1      	ldr	r1, [r2, #12]
 8002776:	4303      	orrs	r3, r0
 8002778:	f021 01ff 	bic.w	r1, r1, #255	; 0xff
 800277c:	430b      	orrs	r3, r1
 800277e:	60d3      	str	r3, [r2, #12]

  /* Enable the selected I2C peripheral */
  __HAL_I2C_ENABLE(hi2c);
 8002780:	6811      	ldr	r1, [r2, #0]

  hi2c->ErrorCode = HAL_I2C_ERROR_NONE;
 8002782:	2300      	movs	r3, #0
  __HAL_I2C_ENABLE(hi2c);
 8002784:	f041 0101 	orr.w	r1, r1, #1
  hi2c->State = HAL_I2C_STATE_READY;
 8002788:	2020      	movs	r0, #32
  __HAL_I2C_ENABLE(hi2c);
 800278a:	6011      	str	r1, [r2, #0]
  hi2c->ErrorCode = HAL_I2C_ERROR_NONE;
 800278c:	6423      	str	r3, [r4, #64]	; 0x40
  hi2c->State = HAL_I2C_STATE_READY;
 800278e:	f884 003d 	strb.w	r0, [r4, #61]	; 0x3d
  hi2c->PreviousState = I2C_STATE_NONE;
 8002792:	6323      	str	r3, [r4, #48]	; 0x30
  hi2c->Mode = HAL_I2C_MODE_NONE;
 8002794:	f884 303e 	strb.w	r3, [r4, #62]	; 0x3e

  return HAL_OK;
 8002798:	4618      	mov	r0, r3
}
 800279a:	bd70      	pop	{r4, r5, r6, pc}
  if (I2C_MIN_PCLK_FREQ(pclk1, hi2c->Init.ClockSpeed) == 1U)
 800279c:	4a28      	ldr	r2, [pc, #160]	; (8002840 <HAL_I2C_Init+0x188>)
 800279e:	4290      	cmp	r0, r2
 80027a0:	d92c      	bls.n	80027fc <HAL_I2C_Init+0x144>
  freqrange = I2C_FREQRANGE(pclk1);
 80027a2:	4d26      	ldr	r5, [pc, #152]	; (800283c <HAL_I2C_Init+0x184>)
  MODIFY_REG(hi2c->Instance->TRISE, I2C_TRISE_TRISE, I2C_RISE_TIME(freqrange, hi2c->Init.ClockSpeed));
 80027a4:	4e27      	ldr	r6, [pc, #156]	; (8002844 <HAL_I2C_Init+0x18c>)
  freqrange = I2C_FREQRANGE(pclk1);
 80027a6:	fba5 2c00 	umull	r2, ip, r5, r0
  MODIFY_REG(hi2c->Instance->CR2, I2C_CR2_FREQ, freqrange);
 80027aa:	6822      	ldr	r2, [r4, #0]
 80027ac:	6855      	ldr	r5, [r2, #4]
 80027ae:	f025 053f 	bic.w	r5, r5, #63	; 0x3f
 80027b2:	ea45 459c 	orr.w	r5, r5, ip, lsr #18
 80027b6:	6055      	str	r5, [r2, #4]
  freqrange = I2C_FREQRANGE(pclk1);
 80027b8:	ea4f 419c 	mov.w	r1, ip, lsr #18
  MODIFY_REG(hi2c->Instance->TRISE, I2C_TRISE_TRISE, I2C_RISE_TIME(freqrange, hi2c->Init.ClockSpeed));
 80027bc:	f44f 7596 	mov.w	r5, #300	; 0x12c
 80027c0:	fb05 f101 	mul.w	r1, r5, r1
 80027c4:	fba6 5101 	umull	r5, r1, r6, r1
 80027c8:	6a15      	ldr	r5, [r2, #32]
 80027ca:	0989      	lsrs	r1, r1, #6
 80027cc:	f025 053f 	bic.w	r5, r5, #63	; 0x3f
 80027d0:	3101      	adds	r1, #1
 80027d2:	4329      	orrs	r1, r5
 80027d4:	6211      	str	r1, [r2, #32]
  MODIFY_REG(hi2c->Instance->CCR, (I2C_CCR_FS | I2C_CCR_DUTY | I2C_CCR_CCR), I2C_SPEED(pclk1, hi2c->Init.ClockSpeed, hi2c->Init.DutyCycle));
 80027d6:	69d1      	ldr	r1, [r2, #28]
 80027d8:	68a5      	ldr	r5, [r4, #8]
 80027da:	f421 414f 	bic.w	r1, r1, #52992	; 0xcf00
 80027de:	f021 01ff 	bic.w	r1, r1, #255	; 0xff
 80027e2:	b9ad      	cbnz	r5, 8002810 <HAL_I2C_Init+0x158>
 80027e4:	3801      	subs	r0, #1
 80027e6:	eb03 0343 	add.w	r3, r3, r3, lsl #1
 80027ea:	fbb0 f3f3 	udiv	r3, r0, r3
 80027ee:	3301      	adds	r3, #1
 80027f0:	f3c3 030b 	ubfx	r3, r3, #0, #12
 80027f4:	b1d3      	cbz	r3, 800282c <HAL_I2C_Init+0x174>
 80027f6:	f443 4300 	orr.w	r3, r3, #32768	; 0x8000
 80027fa:	e7a5      	b.n	8002748 <HAL_I2C_Init+0x90>
    return HAL_ERROR;
 80027fc:	2001      	movs	r0, #1
}
 80027fe:	bd70      	pop	{r4, r5, r6, pc}
    hi2c->Lock = HAL_UNLOCKED;
 8002800:	f880 203c 	strb.w	r2, [r0, #60]	; 0x3c
    HAL_I2C_MspInit(hi2c);
 8002804:	f7ff f9cc 	bl	8001ba0 <HAL_I2C_MspInit>
 8002808:	e762      	b.n	80026d0 <HAL_I2C_Init+0x18>
  MODIFY_REG(hi2c->Instance->CCR, (I2C_CCR_FS | I2C_CCR_DUTY | I2C_CCR_CCR), I2C_SPEED(pclk1, hi2c->Init.ClockSpeed, hi2c->Init.DutyCycle));
 800280a:	f3c3 030b 	ubfx	r3, r3, #0, #12
 800280e:	e79b      	b.n	8002748 <HAL_I2C_Init+0x90>
 8002810:	eb03 0383 	add.w	r3, r3, r3, lsl #2
 8002814:	3801      	subs	r0, #1
 8002816:	eb03 0383 	add.w	r3, r3, r3, lsl #2
 800281a:	fbb0 f3f3 	udiv	r3, r0, r3
 800281e:	3301      	adds	r3, #1
 8002820:	f3c3 030b 	ubfx	r3, r3, #0, #12
 8002824:	b113      	cbz	r3, 800282c <HAL_I2C_Init+0x174>
 8002826:	f443 4340 	orr.w	r3, r3, #49152	; 0xc000
 800282a:	e78d      	b.n	8002748 <HAL_I2C_Init+0x90>
 800282c:	2301      	movs	r3, #1
 800282e:	e78b      	b.n	8002748 <HAL_I2C_Init+0x90>
    return HAL_ERROR;
 8002830:	2001      	movs	r0, #1
}
 8002832:	4770      	bx	lr
 8002834:	000186a0 	.word	0x000186a0
 8002838:	001e847f 	.word	0x001e847f
 800283c:	431bde83 	.word	0x431bde83
 8002840:	003d08ff 	.word	0x003d08ff
 8002844:	10624dd3 	.word	0x10624dd3

08002848 <HAL_I2C_Master_Transmit>:
  * @param  Size Amount of data to be sent
  * @param  Timeout Timeout duration
  * @retval HAL status
  */
HAL_StatusTypeDef HAL_I2C_Master_Transmit(I2C_HandleTypeDef *hi2c, uint16_t DevAddress, uint8_t *pData, uint16_t Size, uint32_t Timeout)
{
 8002848:	e92d 4ff0 	stmdb	sp!, {r4, r5, r6, r7, r8, r9, sl, fp, lr}
 800284c:	4605      	mov	r5, r0
 800284e:	b083      	sub	sp, #12
 8002850:	4699      	mov	r9, r3
 8002852:	9f0c      	ldr	r7, [sp, #48]	; 0x30
 8002854:	4688      	mov	r8, r1
 8002856:	4692      	mov	sl, r2
  /* Init tickstart for timeout management*/
  uint32_t tickstart = HAL_GetTick();
 8002858:	f7ff fb28 	bl	8001eac <HAL_GetTick>

  if (hi2c->State == HAL_I2C_STATE_READY)
 800285c:	f895 303d 	ldrb.w	r3, [r5, #61]	; 0x3d
 8002860:	2b20      	cmp	r3, #32
 8002862:	d003      	beq.n	800286c <HAL_I2C_Master_Transmit+0x24>
  {
    /* Wait until BUSY flag is reset */
    if (I2C_WaitOnFlagUntilTimeout(hi2c, I2C_FLAG_BUSY, SET, I2C_TIMEOUT_BUSY_FLAG, tickstart) != HAL_OK)
    {
      return HAL_BUSY;
 8002864:	2002      	movs	r0, #2
  }
  else
  {
    return HAL_BUSY;
  }
}
 8002866:	b003      	add	sp, #12
 8002868:	e8bd 8ff0 	ldmia.w	sp!, {r4, r5, r6, r7, r8, r9, sl, fp, pc}
 800286c:	4606      	mov	r6, r0
 800286e:	e005      	b.n	800287c <HAL_I2C_Master_Transmit+0x34>
  while (__HAL_I2C_GET_FLAG(hi2c, Flag) == Status)
  {
    /* Check for the Timeout */
    if (Timeout != HAL_MAX_DELAY)
    {
      if (((HAL_GetTick() - Tickstart) > Timeout) || (Timeout == 0U))
 8002870:	f7ff fb1c 	bl	8001eac <HAL_GetTick>
 8002874:	1b80      	subs	r0, r0, r6
 8002876:	2819      	cmp	r0, #25
 8002878:	f200 80f5 	bhi.w	8002a66 <HAL_I2C_Master_Transmit+0x21e>
  while (__HAL_I2C_GET_FLAG(hi2c, Flag) == Status)
 800287c:	682c      	ldr	r4, [r5, #0]
 800287e:	69a3      	ldr	r3, [r4, #24]
 8002880:	ea6f 0c03 	mvn.w	ip, r3
 8002884:	f01c 0b02 	ands.w	fp, ip, #2
 8002888:	d0f2      	beq.n	8002870 <HAL_I2C_Master_Transmit+0x28>
    __HAL_LOCK(hi2c);
 800288a:	f895 303c 	ldrb.w	r3, [r5, #60]	; 0x3c
 800288e:	2b01      	cmp	r3, #1
 8002890:	d0e8      	beq.n	8002864 <HAL_I2C_Master_Transmit+0x1c>
 8002892:	2301      	movs	r3, #1
 8002894:	f885 303c 	strb.w	r3, [r5, #60]	; 0x3c
    if ((hi2c->Instance->CR1 & I2C_CR1_PE) != I2C_CR1_PE)
 8002898:	6823      	ldr	r3, [r4, #0]
 800289a:	07d9      	lsls	r1, r3, #31
 800289c:	d56f      	bpl.n	800297e <HAL_I2C_Master_Transmit+0x136>
    CLEAR_BIT(hi2c->Instance->CR1, I2C_CR1_POS);
 800289e:	6823      	ldr	r3, [r4, #0]
    hi2c->XferOptions = I2C_NO_OPTION_FRAME;
 80028a0:	4a97      	ldr	r2, [pc, #604]	; (8002b00 <HAL_I2C_Master_Transmit+0x2b8>)
    CLEAR_BIT(hi2c->Instance->CR1, I2C_CR1_POS);
 80028a2:	f423 6300 	bic.w	r3, r3, #2048	; 0x800
 80028a6:	6023      	str	r3, [r4, #0]
    hi2c->State       = HAL_I2C_STATE_BUSY_TX;
 80028a8:	2321      	movs	r3, #33	; 0x21
 80028aa:	f885 303d 	strb.w	r3, [r5, #61]	; 0x3d
    hi2c->Mode        = HAL_I2C_MODE_MASTER;
 80028ae:	2310      	movs	r3, #16
 80028b0:	f885 303e 	strb.w	r3, [r5, #62]	; 0x3e
    hi2c->ErrorCode   = HAL_I2C_ERROR_NONE;
 80028b4:	2300      	movs	r3, #0
 80028b6:	642b      	str	r3, [r5, #64]	; 0x40
    hi2c->XferCount   = Size;
 80028b8:	f8a5 902a 	strh.w	r9, [r5, #42]	; 0x2a
    hi2c->XferSize    = hi2c->XferCount;
 80028bc:	8d6b      	ldrh	r3, [r5, #42]	; 0x2a
    hi2c->XferOptions = I2C_NO_OPTION_FRAME;
 80028be:	62ea      	str	r2, [r5, #44]	; 0x2c
    hi2c->XferSize    = hi2c->XferCount;
 80028c0:	852b      	strh	r3, [r5, #40]	; 0x28
  uint32_t CurrentXferOptions = hi2c->XferOptions;
 80028c2:	6aeb      	ldr	r3, [r5, #44]	; 0x2c
    hi2c->pBuffPtr    = pData;
 80028c4:	f8c5 a024 	str.w	sl, [r5, #36]	; 0x24
  if ((CurrentXferOptions == I2C_FIRST_AND_LAST_FRAME) || (CurrentXferOptions == I2C_FIRST_FRAME) || (CurrentXferOptions == I2C_NO_OPTION_FRAME))
 80028c8:	2b08      	cmp	r3, #8
 80028ca:	d006      	beq.n	80028da <HAL_I2C_Master_Transmit+0x92>
 80028cc:	2b01      	cmp	r3, #1
 80028ce:	d004      	beq.n	80028da <HAL_I2C_Master_Transmit+0x92>
 80028d0:	4293      	cmp	r3, r2
 80028d2:	d002      	beq.n	80028da <HAL_I2C_Master_Transmit+0x92>
  else if (hi2c->PreviousState == I2C_STATE_MASTER_BUSY_RX)
 80028d4:	6b2b      	ldr	r3, [r5, #48]	; 0x30
 80028d6:	2b12      	cmp	r3, #18
 80028d8:	d103      	bne.n	80028e2 <HAL_I2C_Master_Transmit+0x9a>
    SET_BIT(hi2c->Instance->CR1, I2C_CR1_START);
 80028da:	6823      	ldr	r3, [r4, #0]
 80028dc:	f443 7380 	orr.w	r3, r3, #256	; 0x100
 80028e0:	6023      	str	r3, [r4, #0]
 80028e2:	1c7b      	adds	r3, r7, #1
 80028e4:	d13d      	bne.n	8002962 <HAL_I2C_Master_Transmit+0x11a>
  while (__HAL_I2C_GET_FLAG(hi2c, Flag) == Status)
 80028e6:	6963      	ldr	r3, [r4, #20]
 80028e8:	07d8      	lsls	r0, r3, #31
 80028ea:	d5fc      	bpl.n	80028e6 <HAL_I2C_Master_Transmit+0x9e>
  if (hi2c->Init.AddressingMode == I2C_ADDRESSINGMODE_7BIT)
 80028ec:	692b      	ldr	r3, [r5, #16]
 80028ee:	f5b3 4f80 	cmp.w	r3, #16384	; 0x4000
 80028f2:	d149      	bne.n	8002988 <HAL_I2C_Master_Transmit+0x140>
    hi2c->Instance->DR = I2C_7BIT_ADD_WRITE(DevAddress);
 80028f4:	f008 01fe 	and.w	r1, r8, #254	; 0xfe
 80028f8:	6121      	str	r1, [r4, #16]
 80028fa:	1c78      	adds	r0, r7, #1
 80028fc:	d004      	beq.n	8002908 <HAL_I2C_Master_Transmit+0xc0>
 80028fe:	e0d8      	b.n	8002ab2 <HAL_I2C_Master_Transmit+0x26a>
  */
static HAL_StatusTypeDef I2C_WaitOnMasterAddressFlagUntilTimeout(I2C_HandleTypeDef *hi2c, uint32_t Flag, uint32_t Timeout, uint32_t Tickstart)
{
  while (__HAL_I2C_GET_FLAG(hi2c, Flag) == RESET)
  {
    if (__HAL_I2C_GET_FLAG(hi2c, I2C_FLAG_AF) == SET)
 8002900:	6963      	ldr	r3, [r4, #20]
 8002902:	055a      	lsls	r2, r3, #21
 8002904:	f100 80bd 	bmi.w	8002a82 <HAL_I2C_Master_Transmit+0x23a>
  while (__HAL_I2C_GET_FLAG(hi2c, Flag) == RESET)
 8002908:	6963      	ldr	r3, [r4, #20]
 800290a:	0799      	lsls	r1, r3, #30
 800290c:	d5f8      	bpl.n	8002900 <HAL_I2C_Master_Transmit+0xb8>
    __HAL_I2C_CLEAR_ADDRFLAG(hi2c);
 800290e:	2300      	movs	r3, #0
 8002910:	9301      	str	r3, [sp, #4]
 8002912:	6963      	ldr	r3, [r4, #20]
 8002914:	9301      	str	r3, [sp, #4]
 8002916:	69a3      	ldr	r3, [r4, #24]
 8002918:	9301      	str	r3, [sp, #4]
    while (hi2c->XferSize > 0U)
 800291a:	8d2b      	ldrh	r3, [r5, #40]	; 0x28
    __HAL_I2C_CLEAR_ADDRFLAG(hi2c);
 800291c:	9a01      	ldr	r2, [sp, #4]
    while (hi2c->XferSize > 0U)
 800291e:	2b00      	cmp	r3, #0
 8002920:	d074      	beq.n	8002a0c <HAL_I2C_Master_Transmit+0x1c4>
 8002922:	1c79      	adds	r1, r7, #1
 8002924:	d17f      	bne.n	8002a26 <HAL_I2C_Master_Transmit+0x1de>
  * @param  Tickstart Tick start value
  * @retval HAL status
  */
static HAL_StatusTypeDef I2C_WaitOnTXEFlagUntilTimeout(I2C_HandleTypeDef *hi2c, uint32_t Timeout, uint32_t Tickstart)
{
  while (__HAL_I2C_GET_FLAG(hi2c, I2C_FLAG_TXE) == RESET)
 8002926:	6963      	ldr	r3, [r4, #20]
 8002928:	061a      	lsls	r2, r3, #24
 800292a:	d441      	bmi.n	80029b0 <HAL_I2C_Master_Transmit+0x168>
  *                the configuration information for the specified I2C.
  * @retval HAL status
  */
static HAL_StatusTypeDef I2C_IsAcknowledgeFailed(I2C_HandleTypeDef *hi2c)
{
  if (__HAL_I2C_GET_FLAG(hi2c, I2C_FLAG_AF) == SET)
 800292c:	6963      	ldr	r3, [r4, #20]
 800292e:	055b      	lsls	r3, r3, #21
 8002930:	d5f9      	bpl.n	8002926 <HAL_I2C_Master_Transmit+0xde>
  {
    /* Clear NACKF Flag */
    __HAL_I2C_CLEAR_FLAG(hi2c, I2C_FLAG_AF);

    hi2c->PreviousState       = I2C_STATE_NONE;
 8002932:	2200      	movs	r2, #0
    hi2c->State               = HAL_I2C_STATE_READY;
 8002934:	2320      	movs	r3, #32
    __HAL_I2C_CLEAR_FLAG(hi2c, I2C_FLAG_AF);
 8002936:	f46f 6180 	mvn.w	r1, #1024	; 0x400
 800293a:	6161      	str	r1, [r4, #20]
    hi2c->PreviousState       = I2C_STATE_NONE;
 800293c:	632a      	str	r2, [r5, #48]	; 0x30
    hi2c->State               = HAL_I2C_STATE_READY;
 800293e:	f885 303d 	strb.w	r3, [r5, #61]	; 0x3d
    hi2c->Mode                = HAL_I2C_MODE_NONE;
 8002942:	f885 203e 	strb.w	r2, [r5, #62]	; 0x3e
    hi2c->ErrorCode           |= HAL_I2C_ERROR_AF;
 8002946:	6c2b      	ldr	r3, [r5, #64]	; 0x40

    /* Process Unlocked */
    __HAL_UNLOCK(hi2c);
 8002948:	f885 203c 	strb.w	r2, [r5, #60]	; 0x3c
    hi2c->ErrorCode           |= HAL_I2C_ERROR_AF;
 800294c:	f043 0304 	orr.w	r3, r3, #4
 8002950:	642b      	str	r3, [r5, #64]	; 0x40
        if (hi2c->ErrorCode == HAL_I2C_ERROR_AF)
 8002952:	6c2b      	ldr	r3, [r5, #64]	; 0x40
 8002954:	2b04      	cmp	r3, #4
 8002956:	f000 80e4 	beq.w	8002b22 <HAL_I2C_Master_Transmit+0x2da>
      return HAL_ERROR;
 800295a:	2001      	movs	r0, #1
}
 800295c:	b003      	add	sp, #12
 800295e:	e8bd 8ff0 	ldmia.w	sp!, {r4, r5, r6, r7, r8, r9, sl, fp, pc}
  while (__HAL_I2C_GET_FLAG(hi2c, Flag) == Status)
 8002962:	6963      	ldr	r3, [r4, #20]
 8002964:	07d9      	lsls	r1, r3, #31
 8002966:	d4c1      	bmi.n	80028ec <HAL_I2C_Master_Transmit+0xa4>
      if (((HAL_GetTick() - Tickstart) > Timeout) || (Timeout == 0U))
 8002968:	f7ff faa0 	bl	8001eac <HAL_GetTick>
 800296c:	1b80      	subs	r0, r0, r6
 800296e:	4287      	cmp	r7, r0
 8002970:	f0c0 80af 	bcc.w	8002ad2 <HAL_I2C_Master_Transmit+0x28a>
 8002974:	2f00      	cmp	r7, #0
 8002976:	f000 80ac 	beq.w	8002ad2 <HAL_I2C_Master_Transmit+0x28a>
  while (__HAL_I2C_GET_FLAG(hi2c, Flag) == Status)
 800297a:	682c      	ldr	r4, [r5, #0]
 800297c:	e7b1      	b.n	80028e2 <HAL_I2C_Master_Transmit+0x9a>
      __HAL_I2C_ENABLE(hi2c);
 800297e:	6823      	ldr	r3, [r4, #0]
 8002980:	f043 0301 	orr.w	r3, r3, #1
 8002984:	6023      	str	r3, [r4, #0]
 8002986:	e78a      	b.n	800289e <HAL_I2C_Master_Transmit+0x56>
    hi2c->Instance->DR = I2C_10BIT_HEADER_WRITE(DevAddress);
 8002988:	ea4f 13e8 	mov.w	r3, r8, asr #7
 800298c:	f003 0306 	and.w	r3, r3, #6
 8002990:	f043 03f0 	orr.w	r3, r3, #240	; 0xf0
 8002994:	6123      	str	r3, [r4, #16]
 8002996:	1c7b      	adds	r3, r7, #1
 8002998:	d003      	beq.n	80029a2 <HAL_I2C_Master_Transmit+0x15a>
 800299a:	e0b3      	b.n	8002b04 <HAL_I2C_Master_Transmit+0x2bc>
    if (__HAL_I2C_GET_FLAG(hi2c, I2C_FLAG_AF) == SET)
 800299c:	6963      	ldr	r3, [r4, #20]
 800299e:	0559      	lsls	r1, r3, #21
 80029a0:	d46f      	bmi.n	8002a82 <HAL_I2C_Master_Transmit+0x23a>
  while (__HAL_I2C_GET_FLAG(hi2c, Flag) == RESET)
 80029a2:	6963      	ldr	r3, [r4, #20]
 80029a4:	0718      	lsls	r0, r3, #28
 80029a6:	d5f9      	bpl.n	800299c <HAL_I2C_Master_Transmit+0x154>
    hi2c->Instance->DR = I2C_10BIT_ADDRESS(DevAddress);
 80029a8:	fa5f f388 	uxtb.w	r3, r8
 80029ac:	6123      	str	r3, [r4, #16]
 80029ae:	e7a4      	b.n	80028fa <HAL_I2C_Master_Transmit+0xb2>
      hi2c->Instance->DR = *hi2c->pBuffPtr;
 80029b0:	6a68      	ldr	r0, [r5, #36]	; 0x24
      hi2c->XferSize--;
 80029b2:	f8b5 c028 	ldrh.w	ip, [r5, #40]	; 0x28
      hi2c->Instance->DR = *hi2c->pBuffPtr;
 80029b6:	4601      	mov	r1, r0
      hi2c->XferSize--;
 80029b8:	f10c 32ff 	add.w	r2, ip, #4294967295	; 0xffffffff
      hi2c->Instance->DR = *hi2c->pBuffPtr;
 80029bc:	f811 3b01 	ldrb.w	r3, [r1], #1
 80029c0:	6123      	str	r3, [r4, #16]
      hi2c->XferCount--;
 80029c2:	8d6b      	ldrh	r3, [r5, #42]	; 0x2a
      hi2c->pBuffPtr++;
 80029c4:	6269      	str	r1, [r5, #36]	; 0x24
      hi2c->XferCount--;
 80029c6:	3b01      	subs	r3, #1
 80029c8:	b29b      	uxth	r3, r3
 80029ca:	856b      	strh	r3, [r5, #42]	; 0x2a
      if ((__HAL_I2C_GET_FLAG(hi2c, I2C_FLAG_BTF) == SET) && (hi2c->XferSize != 0U))
 80029cc:	6963      	ldr	r3, [r4, #20]
      hi2c->XferSize--;
 80029ce:	b292      	uxth	r2, r2
      if ((__HAL_I2C_GET_FLAG(hi2c, I2C_FLAG_BTF) == SET) && (hi2c->XferSize != 0U))
 80029d0:	0759      	lsls	r1, r3, #29
      hi2c->XferSize--;
 80029d2:	852a      	strh	r2, [r5, #40]	; 0x28
      if ((__HAL_I2C_GET_FLAG(hi2c, I2C_FLAG_BTF) == SET) && (hi2c->XferSize != 0U))
 80029d4:	d50c      	bpl.n	80029f0 <HAL_I2C_Master_Transmit+0x1a8>
 80029d6:	b15a      	cbz	r2, 80029f0 <HAL_I2C_Master_Transmit+0x1a8>
        hi2c->Instance->DR = *hi2c->pBuffPtr;
 80029d8:	7843      	ldrb	r3, [r0, #1]
 80029da:	6123      	str	r3, [r4, #16]
        hi2c->XferCount--;
 80029dc:	8d6b      	ldrh	r3, [r5, #42]	; 0x2a
 80029de:	3b01      	subs	r3, #1
        hi2c->XferSize--;
 80029e0:	f1ac 0c02 	sub.w	ip, ip, #2
        hi2c->pBuffPtr++;
 80029e4:	3002      	adds	r0, #2
        hi2c->XferCount--;
 80029e6:	b29b      	uxth	r3, r3
        hi2c->XferSize--;
 80029e8:	f8a5 c028 	strh.w	ip, [r5, #40]	; 0x28
        hi2c->pBuffPtr++;
 80029ec:	6268      	str	r0, [r5, #36]	; 0x24
        hi2c->XferCount--;
 80029ee:	856b      	strh	r3, [r5, #42]	; 0x2a
 80029f0:	1c78      	adds	r0, r7, #1
 80029f2:	d128      	bne.n	8002a46 <HAL_I2C_Master_Transmit+0x1fe>
  while (__HAL_I2C_GET_FLAG(hi2c, I2C_FLAG_BTF) == RESET)
 80029f4:	6963      	ldr	r3, [r4, #20]
 80029f6:	0759      	lsls	r1, r3, #29
 80029f8:	d405      	bmi.n	8002a06 <HAL_I2C_Master_Transmit+0x1be>
  if (__HAL_I2C_GET_FLAG(hi2c, I2C_FLAG_AF) == SET)
 80029fa:	6963      	ldr	r3, [r4, #20]
 80029fc:	055a      	lsls	r2, r3, #21
 80029fe:	d498      	bmi.n	8002932 <HAL_I2C_Master_Transmit+0xea>
  while (__HAL_I2C_GET_FLAG(hi2c, I2C_FLAG_BTF) == RESET)
 8002a00:	6963      	ldr	r3, [r4, #20]
 8002a02:	0759      	lsls	r1, r3, #29
 8002a04:	d5f9      	bpl.n	80029fa <HAL_I2C_Master_Transmit+0x1b2>
    while (hi2c->XferSize > 0U)
 8002a06:	8d2b      	ldrh	r3, [r5, #40]	; 0x28
 8002a08:	2b00      	cmp	r3, #0
 8002a0a:	d18a      	bne.n	8002922 <HAL_I2C_Master_Transmit+0xda>
    SET_BIT(hi2c->Instance->CR1, I2C_CR1_STOP);
 8002a0c:	6823      	ldr	r3, [r4, #0]
    hi2c->Mode = HAL_I2C_MODE_NONE;
 8002a0e:	2000      	movs	r0, #0
    SET_BIT(hi2c->Instance->CR1, I2C_CR1_STOP);
 8002a10:	f443 7300 	orr.w	r3, r3, #512	; 0x200
    hi2c->State = HAL_I2C_STATE_READY;
 8002a14:	2220      	movs	r2, #32
    SET_BIT(hi2c->Instance->CR1, I2C_CR1_STOP);
 8002a16:	6023      	str	r3, [r4, #0]
    hi2c->State = HAL_I2C_STATE_READY;
 8002a18:	f885 203d 	strb.w	r2, [r5, #61]	; 0x3d
    __HAL_UNLOCK(hi2c);
 8002a1c:	f885 003c 	strb.w	r0, [r5, #60]	; 0x3c
    hi2c->Mode = HAL_I2C_MODE_NONE;
 8002a20:	f885 003e 	strb.w	r0, [r5, #62]	; 0x3e
    return HAL_OK;
 8002a24:	e71f      	b.n	8002866 <HAL_I2C_Master_Transmit+0x1e>
  while (__HAL_I2C_GET_FLAG(hi2c, I2C_FLAG_TXE) == RESET)
 8002a26:	6963      	ldr	r3, [r4, #20]
 8002a28:	0618      	lsls	r0, r3, #24
 8002a2a:	d4c1      	bmi.n	80029b0 <HAL_I2C_Master_Transmit+0x168>
  if (__HAL_I2C_GET_FLAG(hi2c, I2C_FLAG_AF) == SET)
 8002a2c:	6963      	ldr	r3, [r4, #20]
 8002a2e:	0558      	lsls	r0, r3, #21
 8002a30:	f53f af7f 	bmi.w	8002932 <HAL_I2C_Master_Transmit+0xea>
      if (((HAL_GetTick() - Tickstart) > Timeout) || (Timeout == 0U))
 8002a34:	f7ff fa3a 	bl	8001eac <HAL_GetTick>
 8002a38:	1b80      	subs	r0, r0, r6
 8002a3a:	4287      	cmp	r7, r0
 8002a3c:	d378      	bcc.n	8002b30 <HAL_I2C_Master_Transmit+0x2e8>
 8002a3e:	2f00      	cmp	r7, #0
 8002a40:	d076      	beq.n	8002b30 <HAL_I2C_Master_Transmit+0x2e8>
  while (__HAL_I2C_GET_FLAG(hi2c, I2C_FLAG_TXE) == RESET)
 8002a42:	682c      	ldr	r4, [r5, #0]
 8002a44:	e76d      	b.n	8002922 <HAL_I2C_Master_Transmit+0xda>
  while (__HAL_I2C_GET_FLAG(hi2c, I2C_FLAG_BTF) == RESET)
 8002a46:	6963      	ldr	r3, [r4, #20]
 8002a48:	075b      	lsls	r3, r3, #29
 8002a4a:	d4dc      	bmi.n	8002a06 <HAL_I2C_Master_Transmit+0x1be>
  if (__HAL_I2C_GET_FLAG(hi2c, I2C_FLAG_AF) == SET)
 8002a4c:	6963      	ldr	r3, [r4, #20]
 8002a4e:	055b      	lsls	r3, r3, #21
 8002a50:	f53f af6f 	bmi.w	8002932 <HAL_I2C_Master_Transmit+0xea>
      if (((HAL_GetTick() - Tickstart) > Timeout) || (Timeout == 0U))
 8002a54:	f7ff fa2a 	bl	8001eac <HAL_GetTick>
 8002a58:	1b80      	subs	r0, r0, r6
 8002a5a:	4287      	cmp	r7, r0
 8002a5c:	d368      	bcc.n	8002b30 <HAL_I2C_Master_Transmit+0x2e8>
 8002a5e:	2f00      	cmp	r7, #0
 8002a60:	d066      	beq.n	8002b30 <HAL_I2C_Master_Transmit+0x2e8>
  while (__HAL_I2C_GET_FLAG(hi2c, I2C_FLAG_BTF) == RESET)
 8002a62:	682c      	ldr	r4, [r5, #0]
 8002a64:	e7c4      	b.n	80029f0 <HAL_I2C_Master_Transmit+0x1a8>
        hi2c->State             = HAL_I2C_STATE_READY;
 8002a66:	2320      	movs	r3, #32
        hi2c->PreviousState     = I2C_STATE_NONE;
 8002a68:	f8c5 b030 	str.w	fp, [r5, #48]	; 0x30
        hi2c->State             = HAL_I2C_STATE_READY;
 8002a6c:	f885 303d 	strb.w	r3, [r5, #61]	; 0x3d
        hi2c->Mode              = HAL_I2C_MODE_NONE;
 8002a70:	f885 b03e 	strb.w	fp, [r5, #62]	; 0x3e
        hi2c->ErrorCode         |= HAL_I2C_ERROR_TIMEOUT;
 8002a74:	6c2b      	ldr	r3, [r5, #64]	; 0x40
        __HAL_UNLOCK(hi2c);
 8002a76:	f885 b03c 	strb.w	fp, [r5, #60]	; 0x3c
        hi2c->ErrorCode         |= HAL_I2C_ERROR_TIMEOUT;
 8002a7a:	f043 0320 	orr.w	r3, r3, #32
 8002a7e:	642b      	str	r3, [r5, #64]	; 0x40
 8002a80:	e6f0      	b.n	8002864 <HAL_I2C_Master_Transmit+0x1c>
      SET_BIT(hi2c->Instance->CR1, I2C_CR1_STOP);
 8002a82:	6823      	ldr	r3, [r4, #0]
 8002a84:	f443 7300 	orr.w	r3, r3, #512	; 0x200
 8002a88:	6023      	str	r3, [r4, #0]
      hi2c->PreviousState       = I2C_STATE_NONE;
 8002a8a:	2200      	movs	r2, #0
      __HAL_I2C_CLEAR_FLAG(hi2c, I2C_FLAG_AF);
 8002a8c:	f46f 6180 	mvn.w	r1, #1024	; 0x400
      hi2c->State               = HAL_I2C_STATE_READY;
 8002a90:	2320      	movs	r3, #32
      __HAL_I2C_CLEAR_FLAG(hi2c, I2C_FLAG_AF);
 8002a92:	6161      	str	r1, [r4, #20]
      hi2c->PreviousState       = I2C_STATE_NONE;
 8002a94:	632a      	str	r2, [r5, #48]	; 0x30
      hi2c->State               = HAL_I2C_STATE_READY;
 8002a96:	f885 303d 	strb.w	r3, [r5, #61]	; 0x3d
      hi2c->Mode                = HAL_I2C_MODE_NONE;
 8002a9a:	f885 203e 	strb.w	r2, [r5, #62]	; 0x3e
      hi2c->ErrorCode           |= HAL_I2C_ERROR_AF;
 8002a9e:	6c2b      	ldr	r3, [r5, #64]	; 0x40
      __HAL_UNLOCK(hi2c);
 8002aa0:	f885 203c 	strb.w	r2, [r5, #60]	; 0x3c
      hi2c->ErrorCode           |= HAL_I2C_ERROR_AF;
 8002aa4:	f043 0304 	orr.w	r3, r3, #4
      return HAL_ERROR;
 8002aa8:	2001      	movs	r0, #1
      hi2c->ErrorCode           |= HAL_I2C_ERROR_AF;
 8002aaa:	642b      	str	r3, [r5, #64]	; 0x40
}
 8002aac:	b003      	add	sp, #12
 8002aae:	e8bd 8ff0 	ldmia.w	sp!, {r4, r5, r6, r7, r8, r9, sl, fp, pc}
  while (__HAL_I2C_GET_FLAG(hi2c, Flag) == RESET)
 8002ab2:	6963      	ldr	r3, [r4, #20]
 8002ab4:	079b      	lsls	r3, r3, #30
 8002ab6:	f53f af2a 	bmi.w	800290e <HAL_I2C_Master_Transmit+0xc6>
    if (__HAL_I2C_GET_FLAG(hi2c, I2C_FLAG_AF) == SET)
 8002aba:	6963      	ldr	r3, [r4, #20]
 8002abc:	055b      	lsls	r3, r3, #21
 8002abe:	d4e0      	bmi.n	8002a82 <HAL_I2C_Master_Transmit+0x23a>
      if (((HAL_GetTick() - Tickstart) > Timeout) || (Timeout == 0U))
 8002ac0:	f7ff f9f4 	bl	8001eac <HAL_GetTick>
 8002ac4:	1b80      	subs	r0, r0, r6
 8002ac6:	4287      	cmp	r7, r0
 8002ac8:	d340      	bcc.n	8002b4c <HAL_I2C_Master_Transmit+0x304>
 8002aca:	2f00      	cmp	r7, #0
 8002acc:	d03e      	beq.n	8002b4c <HAL_I2C_Master_Transmit+0x304>
  while (__HAL_I2C_GET_FLAG(hi2c, Flag) == RESET)
 8002ace:	682c      	ldr	r4, [r5, #0]
 8002ad0:	e713      	b.n	80028fa <HAL_I2C_Master_Transmit+0xb2>
        hi2c->PreviousState     = I2C_STATE_NONE;
 8002ad2:	2300      	movs	r3, #0
        hi2c->State             = HAL_I2C_STATE_READY;
 8002ad4:	2220      	movs	r2, #32
        hi2c->PreviousState     = I2C_STATE_NONE;
 8002ad6:	632b      	str	r3, [r5, #48]	; 0x30
        hi2c->State             = HAL_I2C_STATE_READY;
 8002ad8:	f885 203d 	strb.w	r2, [r5, #61]	; 0x3d
        hi2c->Mode              = HAL_I2C_MODE_NONE;
 8002adc:	f885 303e 	strb.w	r3, [r5, #62]	; 0x3e
        hi2c->ErrorCode         |= HAL_I2C_ERROR_TIMEOUT;
 8002ae0:	6c2a      	ldr	r2, [r5, #64]	; 0x40
    if (READ_BIT(hi2c->Instance->CR1, I2C_CR1_START) == I2C_CR1_START)
 8002ae2:	6829      	ldr	r1, [r5, #0]
        __HAL_UNLOCK(hi2c);
 8002ae4:	f885 303c 	strb.w	r3, [r5, #60]	; 0x3c
        hi2c->ErrorCode         |= HAL_I2C_ERROR_TIMEOUT;
 8002ae8:	f042 0220 	orr.w	r2, r2, #32
 8002aec:	642a      	str	r2, [r5, #64]	; 0x40
    if (READ_BIT(hi2c->Instance->CR1, I2C_CR1_START) == I2C_CR1_START)
 8002aee:	680b      	ldr	r3, [r1, #0]
 8002af0:	05da      	lsls	r2, r3, #23
 8002af2:	f57f af32 	bpl.w	800295a <HAL_I2C_Master_Transmit+0x112>
      hi2c->ErrorCode = HAL_I2C_WRONG_START;
 8002af6:	f44f 7300 	mov.w	r3, #512	; 0x200
 8002afa:	642b      	str	r3, [r5, #64]	; 0x40
 8002afc:	e72d      	b.n	800295a <HAL_I2C_Master_Transmit+0x112>
 8002afe:	bf00      	nop
 8002b00:	ffff0000 	.word	0xffff0000
  while (__HAL_I2C_GET_FLAG(hi2c, Flag) == RESET)
 8002b04:	6963      	ldr	r3, [r4, #20]
 8002b06:	071a      	lsls	r2, r3, #28
 8002b08:	f53f af4e 	bmi.w	80029a8 <HAL_I2C_Master_Transmit+0x160>
    if (__HAL_I2C_GET_FLAG(hi2c, I2C_FLAG_AF) == SET)
 8002b0c:	6963      	ldr	r3, [r4, #20]
 8002b0e:	055a      	lsls	r2, r3, #21
 8002b10:	d4b7      	bmi.n	8002a82 <HAL_I2C_Master_Transmit+0x23a>
      if (((HAL_GetTick() - Tickstart) > Timeout) || (Timeout == 0U))
 8002b12:	f7ff f9cb 	bl	8001eac <HAL_GetTick>
 8002b16:	1b80      	subs	r0, r0, r6
 8002b18:	4287      	cmp	r7, r0
 8002b1a:	d317      	bcc.n	8002b4c <HAL_I2C_Master_Transmit+0x304>
 8002b1c:	b1b7      	cbz	r7, 8002b4c <HAL_I2C_Master_Transmit+0x304>
  while (__HAL_I2C_GET_FLAG(hi2c, Flag) == RESET)
 8002b1e:	682c      	ldr	r4, [r5, #0]
 8002b20:	e739      	b.n	8002996 <HAL_I2C_Master_Transmit+0x14e>
          SET_BIT(hi2c->Instance->CR1, I2C_CR1_STOP);
 8002b22:	682a      	ldr	r2, [r5, #0]
 8002b24:	6813      	ldr	r3, [r2, #0]
 8002b26:	f443 7300 	orr.w	r3, r3, #512	; 0x200
        return HAL_ERROR;
 8002b2a:	2001      	movs	r0, #1
          SET_BIT(hi2c->Instance->CR1, I2C_CR1_STOP);
 8002b2c:	6013      	str	r3, [r2, #0]
 8002b2e:	e69a      	b.n	8002866 <HAL_I2C_Master_Transmit+0x1e>
        hi2c->PreviousState     = I2C_STATE_NONE;
 8002b30:	2200      	movs	r2, #0
        hi2c->State             = HAL_I2C_STATE_READY;
 8002b32:	2320      	movs	r3, #32
        hi2c->PreviousState     = I2C_STATE_NONE;
 8002b34:	632a      	str	r2, [r5, #48]	; 0x30
        hi2c->State             = HAL_I2C_STATE_READY;
 8002b36:	f885 303d 	strb.w	r3, [r5, #61]	; 0x3d
        hi2c->Mode              = HAL_I2C_MODE_NONE;
 8002b3a:	f885 203e 	strb.w	r2, [r5, #62]	; 0x3e
        hi2c->ErrorCode         |= HAL_I2C_ERROR_TIMEOUT;
 8002b3e:	6c2b      	ldr	r3, [r5, #64]	; 0x40
        __HAL_UNLOCK(hi2c);
 8002b40:	f885 203c 	strb.w	r2, [r5, #60]	; 0x3c
        hi2c->ErrorCode         |= HAL_I2C_ERROR_TIMEOUT;
 8002b44:	f043 0320 	orr.w	r3, r3, #32
 8002b48:	642b      	str	r3, [r5, #64]	; 0x40
 8002b4a:	e702      	b.n	8002952 <HAL_I2C_Master_Transmit+0x10a>
        hi2c->PreviousState       = I2C_STATE_NONE;
 8002b4c:	2200      	movs	r2, #0
        hi2c->State               = HAL_I2C_STATE_READY;
 8002b4e:	2320      	movs	r3, #32
        hi2c->PreviousState       = I2C_STATE_NONE;
 8002b50:	632a      	str	r2, [r5, #48]	; 0x30
        hi2c->State               = HAL_I2C_STATE_READY;
 8002b52:	f885 303d 	strb.w	r3, [r5, #61]	; 0x3d
        hi2c->Mode                = HAL_I2C_MODE_NONE;
 8002b56:	f885 203e 	strb.w	r2, [r5, #62]	; 0x3e
        hi2c->ErrorCode           |= HAL_I2C_ERROR_TIMEOUT;
 8002b5a:	6c2b      	ldr	r3, [r5, #64]	; 0x40
        __HAL_UNLOCK(hi2c);
 8002b5c:	f885 203c 	strb.w	r2, [r5, #60]	; 0x3c
        hi2c->ErrorCode           |= HAL_I2C_ERROR_TIMEOUT;
 8002b60:	f043 0320 	orr.w	r3, r3, #32
 8002b64:	642b      	str	r3, [r5, #64]	; 0x40
      return HAL_ERROR;
 8002b66:	2001      	movs	r0, #1
 8002b68:	e67d      	b.n	8002866 <HAL_I2C_Master_Transmit+0x1e>
 8002b6a:	bf00      	nop

08002b6c <HAL_RCC_OscConfig>:
__weak HAL_StatusTypeDef HAL_RCC_OscConfig(RCC_OscInitTypeDef  *RCC_OscInitStruct)
{
  uint32_t tickstart, pll_config;

  /* Check Null pointer */
  if(RCC_OscInitStruct == NULL)
 8002b6c:	2800      	cmp	r0, #0
 8002b6e:	f000 81a2 	beq.w	8002eb6 <HAL_RCC_OscConfig+0x34a>
{
 8002b72:	e92d 41f0 	stmdb	sp!, {r4, r5, r6, r7, r8, lr}
  }

  /* Check the parameters */
  assert_param(IS_RCC_OSCILLATORTYPE(RCC_OscInitStruct->OscillatorType));
  /*------------------------------- HSE Configuration ------------------------*/
  if(((RCC_OscInitStruct->OscillatorType) & RCC_OSCILLATORTYPE_HSE) == RCC_OSCILLATORTYPE_HSE)
 8002b76:	6803      	ldr	r3, [r0, #0]
 8002b78:	07dd      	lsls	r5, r3, #31
{
 8002b7a:	b082      	sub	sp, #8
 8002b7c:	4604      	mov	r4, r0
  if(((RCC_OscInitStruct->OscillatorType) & RCC_OSCILLATORTYPE_HSE) == RCC_OSCILLATORTYPE_HSE)
 8002b7e:	d52f      	bpl.n	8002be0 <HAL_RCC_OscConfig+0x74>
  {
    /* Check the parameters */
    assert_param(IS_RCC_HSE(RCC_OscInitStruct->HSEState));
    /* When the HSE is used as system clock or clock source for PLL in these cases HSE will not disabled */
    if((__HAL_RCC_GET_SYSCLK_SOURCE() == RCC_CFGR_SWS_HSE) ||\
 8002b80:	499e      	ldr	r1, [pc, #632]	; (8002dfc <HAL_RCC_OscConfig+0x290>)
 8002b82:	688a      	ldr	r2, [r1, #8]
 8002b84:	f002 020c 	and.w	r2, r2, #12
 8002b88:	2a04      	cmp	r2, #4
 8002b8a:	f000 80ed 	beq.w	8002d68 <HAL_RCC_OscConfig+0x1fc>
      ((__HAL_RCC_GET_SYSCLK_SOURCE() == RCC_CFGR_SWS_PLL) && ((RCC->PLLCFGR & RCC_PLLCFGR_PLLSRC) == RCC_PLLCFGR_PLLSRC_HSE)))
 8002b8e:	688a      	ldr	r2, [r1, #8]
 8002b90:	f002 020c 	and.w	r2, r2, #12
    if((__HAL_RCC_GET_SYSCLK_SOURCE() == RCC_CFGR_SWS_HSE) ||\
 8002b94:	2a08      	cmp	r2, #8
 8002b96:	f000 80e3 	beq.w	8002d60 <HAL_RCC_OscConfig+0x1f4>
      }
    }
    else
    {
      /* Set the new HSE configuration ---------------------------------------*/
      __HAL_RCC_HSE_CONFIG(RCC_OscInitStruct->HSEState);
 8002b9a:	6863      	ldr	r3, [r4, #4]
 8002b9c:	f5b3 3f80 	cmp.w	r3, #65536	; 0x10000
 8002ba0:	f000 80ec 	beq.w	8002d7c <HAL_RCC_OscConfig+0x210>
 8002ba4:	f5b3 2fa0 	cmp.w	r3, #327680	; 0x50000
 8002ba8:	f000 8175 	beq.w	8002e96 <HAL_RCC_OscConfig+0x32a>
 8002bac:	4d93      	ldr	r5, [pc, #588]	; (8002dfc <HAL_RCC_OscConfig+0x290>)
 8002bae:	682a      	ldr	r2, [r5, #0]
 8002bb0:	f422 3280 	bic.w	r2, r2, #65536	; 0x10000
 8002bb4:	602a      	str	r2, [r5, #0]
 8002bb6:	682a      	ldr	r2, [r5, #0]
 8002bb8:	f422 2280 	bic.w	r2, r2, #262144	; 0x40000
 8002bbc:	602a      	str	r2, [r5, #0]

      /* Check the HSE State */
      if((RCC_OscInitStruct->HSEState) != RCC_HSE_OFF)
 8002bbe:	2b00      	cmp	r3, #0
 8002bc0:	f040 80e1 	bne.w	8002d86 <HAL_RCC_OscConfig+0x21a>
        }
      }
      else
      {
        /* Get Start Tick */
        tickstart = HAL_GetTick();
 8002bc4:	f7ff f972 	bl	8001eac <HAL_GetTick>
 8002bc8:	4606      	mov	r6, r0

        /* Wait till HSE is bypassed or disabled */
        while(__HAL_RCC_GET_FLAG(RCC_FLAG_HSERDY) != RESET)
 8002bca:	e005      	b.n	8002bd8 <HAL_RCC_OscConfig+0x6c>
        {
          if((HAL_GetTick() - tickstart ) > HSE_TIMEOUT_VALUE)
 8002bcc:	f7ff f96e 	bl	8001eac <HAL_GetTick>
 8002bd0:	1b80      	subs	r0, r0, r6
 8002bd2:	2864      	cmp	r0, #100	; 0x64
 8002bd4:	f200 8101 	bhi.w	8002dda <HAL_RCC_OscConfig+0x26e>
        while(__HAL_RCC_GET_FLAG(RCC_FLAG_HSERDY) != RESET)
 8002bd8:	682b      	ldr	r3, [r5, #0]
 8002bda:	039b      	lsls	r3, r3, #14
 8002bdc:	d4f6      	bmi.n	8002bcc <HAL_RCC_OscConfig+0x60>
        }
      }
    }
  }
  /*----------------------------- HSI Configuration --------------------------*/
  if(((RCC_OscInitStruct->OscillatorType) & RCC_OSCILLATORTYPE_HSI) == RCC_OSCILLATORTYPE_HSI)
 8002bde:	6823      	ldr	r3, [r4, #0]
 8002be0:	079f      	lsls	r7, r3, #30
 8002be2:	d528      	bpl.n	8002c36 <HAL_RCC_OscConfig+0xca>
    /* Check the parameters */
    assert_param(IS_RCC_HSI(RCC_OscInitStruct->HSIState));
    assert_param(IS_RCC_CALIBRATION_VALUE(RCC_OscInitStruct->HSICalibrationValue));

    /* Check if HSI is used as system clock or as PLL source when PLL is selected as system clock */
    if((__HAL_RCC_GET_SYSCLK_SOURCE() == RCC_CFGR_SWS_HSI) ||\
 8002be4:	4a85      	ldr	r2, [pc, #532]	; (8002dfc <HAL_RCC_OscConfig+0x290>)
 8002be6:	6891      	ldr	r1, [r2, #8]
 8002be8:	f011 0f0c 	tst.w	r1, #12
 8002bec:	f000 8090 	beq.w	8002d10 <HAL_RCC_OscConfig+0x1a4>
      ((__HAL_RCC_GET_SYSCLK_SOURCE() == RCC_CFGR_SWS_PLL) && ((RCC->PLLCFGR & RCC_PLLCFGR_PLLSRC) == RCC_PLLCFGR_PLLSRC_HSI)))
 8002bf0:	6891      	ldr	r1, [r2, #8]
 8002bf2:	f001 010c 	and.w	r1, r1, #12
    if((__HAL_RCC_GET_SYSCLK_SOURCE() == RCC_CFGR_SWS_HSI) ||\
 8002bf6:	2908      	cmp	r1, #8
 8002bf8:	f000 8086 	beq.w	8002d08 <HAL_RCC_OscConfig+0x19c>
      }
    }
    else
    {
      /* Check the HSI State */
      if((RCC_OscInitStruct->HSIState)!= RCC_HSI_OFF)
 8002bfc:	68e3      	ldr	r3, [r4, #12]
 8002bfe:	2b00      	cmp	r3, #0
 8002c00:	f000 810e 	beq.w	8002e20 <HAL_RCC_OscConfig+0x2b4>
      {
        /* Enable the Internal High Speed oscillator (HSI). */
        __HAL_RCC_HSI_ENABLE();
 8002c04:	4b7e      	ldr	r3, [pc, #504]	; (8002e00 <HAL_RCC_OscConfig+0x294>)

        /* Get Start Tick*/
        tickstart = HAL_GetTick();

        /* Wait till HSI is ready */
        while(__HAL_RCC_GET_FLAG(RCC_FLAG_HSIRDY) == RESET)
 8002c06:	4e7d      	ldr	r6, [pc, #500]	; (8002dfc <HAL_RCC_OscConfig+0x290>)
        __HAL_RCC_HSI_ENABLE();
 8002c08:	2201      	movs	r2, #1
 8002c0a:	601a      	str	r2, [r3, #0]
        tickstart = HAL_GetTick();
 8002c0c:	f7ff f94e 	bl	8001eac <HAL_GetTick>
 8002c10:	4605      	mov	r5, r0
        while(__HAL_RCC_GET_FLAG(RCC_FLAG_HSIRDY) == RESET)
 8002c12:	e005      	b.n	8002c20 <HAL_RCC_OscConfig+0xb4>
        {
          if((HAL_GetTick() - tickstart ) > HSI_TIMEOUT_VALUE)
 8002c14:	f7ff f94a 	bl	8001eac <HAL_GetTick>
 8002c18:	1b40      	subs	r0, r0, r5
 8002c1a:	2802      	cmp	r0, #2
 8002c1c:	f200 80dd 	bhi.w	8002dda <HAL_RCC_OscConfig+0x26e>
        while(__HAL_RCC_GET_FLAG(RCC_FLAG_HSIRDY) == RESET)
 8002c20:	6833      	ldr	r3, [r6, #0]
 8002c22:	0798      	lsls	r0, r3, #30
 8002c24:	d5f6      	bpl.n	8002c14 <HAL_RCC_OscConfig+0xa8>
            return HAL_TIMEOUT;
          }
        }

        /* Adjusts the Internal High Speed oscillator (HSI) calibration value. */
        __HAL_RCC_HSI_CALIBRATIONVALUE_ADJUST(RCC_OscInitStruct->HSICalibrationValue);
 8002c26:	6833      	ldr	r3, [r6, #0]
 8002c28:	6922      	ldr	r2, [r4, #16]
 8002c2a:	f023 03f8 	bic.w	r3, r3, #248	; 0xf8
 8002c2e:	ea43 03c2 	orr.w	r3, r3, r2, lsl #3
 8002c32:	6033      	str	r3, [r6, #0]
        }
      }
    }
  }
  /*------------------------------ LSI Configuration -------------------------*/
  if(((RCC_OscInitStruct->OscillatorType) & RCC_OSCILLATORTYPE_LSI) == RCC_OSCILLATORTYPE_LSI)
 8002c34:	6823      	ldr	r3, [r4, #0]
 8002c36:	071a      	lsls	r2, r3, #28
 8002c38:	d451      	bmi.n	8002cde <HAL_RCC_OscConfig+0x172>
        }
      }
    }
  }
  /*------------------------------ LSE Configuration -------------------------*/
  if(((RCC_OscInitStruct->OscillatorType) & RCC_OSCILLATORTYPE_LSE) == RCC_OSCILLATORTYPE_LSE)
 8002c3a:	0758      	lsls	r0, r3, #29
 8002c3c:	d52f      	bpl.n	8002c9e <HAL_RCC_OscConfig+0x132>
    /* Check the parameters */
    assert_param(IS_RCC_LSE(RCC_OscInitStruct->LSEState));

    /* Update LSE configuration in Backup Domain control register    */
    /* Requires to enable write access to Backup Domain of necessary */
    if(__HAL_RCC_PWR_IS_CLK_DISABLED())
 8002c3e:	4a6f      	ldr	r2, [pc, #444]	; (8002dfc <HAL_RCC_OscConfig+0x290>)
 8002c40:	6c13      	ldr	r3, [r2, #64]	; 0x40
 8002c42:	f013 5380 	ands.w	r3, r3, #268435456	; 0x10000000
 8002c46:	d07f      	beq.n	8002d48 <HAL_RCC_OscConfig+0x1dc>
    FlagStatus       pwrclkchanged = RESET;
 8002c48:	2500      	movs	r5, #0
    {
      __HAL_RCC_PWR_CLK_ENABLE();
      pwrclkchanged = SET;
    }

    if(HAL_IS_BIT_CLR(PWR->CR, PWR_CR_DBP))
 8002c4a:	4e6e      	ldr	r6, [pc, #440]	; (8002e04 <HAL_RCC_OscConfig+0x298>)
 8002c4c:	6833      	ldr	r3, [r6, #0]
 8002c4e:	05d9      	lsls	r1, r3, #23
 8002c50:	f140 80b3 	bpl.w	8002dba <HAL_RCC_OscConfig+0x24e>
        }
      }
    }

    /* Set the new LSE configuration -----------------------------------------*/
    __HAL_RCC_LSE_CONFIG(RCC_OscInitStruct->LSEState);
 8002c54:	68a3      	ldr	r3, [r4, #8]
 8002c56:	2b01      	cmp	r3, #1
 8002c58:	f000 80c3 	beq.w	8002de2 <HAL_RCC_OscConfig+0x276>
 8002c5c:	2b05      	cmp	r3, #5
 8002c5e:	f000 812c 	beq.w	8002eba <HAL_RCC_OscConfig+0x34e>
 8002c62:	4e66      	ldr	r6, [pc, #408]	; (8002dfc <HAL_RCC_OscConfig+0x290>)
 8002c64:	6f32      	ldr	r2, [r6, #112]	; 0x70
 8002c66:	f022 0201 	bic.w	r2, r2, #1
 8002c6a:	6732      	str	r2, [r6, #112]	; 0x70
 8002c6c:	6f32      	ldr	r2, [r6, #112]	; 0x70
 8002c6e:	f022 0204 	bic.w	r2, r2, #4
 8002c72:	6732      	str	r2, [r6, #112]	; 0x70
    /* Check the LSE State */
    if((RCC_OscInitStruct->LSEState) != RCC_LSE_OFF)
 8002c74:	2b00      	cmp	r3, #0
 8002c76:	f040 80b9 	bne.w	8002dec <HAL_RCC_OscConfig+0x280>
      }
    }
    else
    {
      /* Get Start Tick */
      tickstart = HAL_GetTick();
 8002c7a:	f7ff f917 	bl	8001eac <HAL_GetTick>

      /* Wait till LSE is ready */
      while(__HAL_RCC_GET_FLAG(RCC_FLAG_LSERDY) != RESET)
      {
        if((HAL_GetTick() - tickstart ) > RCC_LSE_TIMEOUT_VALUE)
 8002c7e:	f241 3888 	movw	r8, #5000	; 0x1388
      tickstart = HAL_GetTick();
 8002c82:	4607      	mov	r7, r0
      while(__HAL_RCC_GET_FLAG(RCC_FLAG_LSERDY) != RESET)
 8002c84:	e005      	b.n	8002c92 <HAL_RCC_OscConfig+0x126>
        if((HAL_GetTick() - tickstart ) > RCC_LSE_TIMEOUT_VALUE)
 8002c86:	f7ff f911 	bl	8001eac <HAL_GetTick>
 8002c8a:	1bc0      	subs	r0, r0, r7
 8002c8c:	4540      	cmp	r0, r8
 8002c8e:	f200 80a4 	bhi.w	8002dda <HAL_RCC_OscConfig+0x26e>
      while(__HAL_RCC_GET_FLAG(RCC_FLAG_LSERDY) != RESET)
 8002c92:	6f33      	ldr	r3, [r6, #112]	; 0x70
 8002c94:	0798      	lsls	r0, r3, #30
 8002c96:	d4f6      	bmi.n	8002c86 <HAL_RCC_OscConfig+0x11a>
        }
      }
    }

    /* Restore clock configuration if changed */
    if(pwrclkchanged == SET)
 8002c98:	2d00      	cmp	r5, #0
 8002c9a:	f040 8106 	bne.w	8002eaa <HAL_RCC_OscConfig+0x33e>
    }
  }
  /*-------------------------------- PLL Configuration -----------------------*/
  /* Check the parameters */
  assert_param(IS_RCC_PLL(RCC_OscInitStruct->PLL.PLLState));
  if ((RCC_OscInitStruct->PLL.PLLState) != RCC_PLL_NONE)
 8002c9e:	69a0      	ldr	r0, [r4, #24]
 8002ca0:	b1c8      	cbz	r0, 8002cd6 <HAL_RCC_OscConfig+0x16a>
  {
    /* Check if the PLL is used as system clock or not */
    if(__HAL_RCC_GET_SYSCLK_SOURCE() != RCC_CFGR_SWS_PLL)
 8002ca2:	4d56      	ldr	r5, [pc, #344]	; (8002dfc <HAL_RCC_OscConfig+0x290>)
 8002ca4:	68ab      	ldr	r3, [r5, #8]
 8002ca6:	f003 030c 	and.w	r3, r3, #12
 8002caa:	2b08      	cmp	r3, #8
 8002cac:	f000 80c9 	beq.w	8002e42 <HAL_RCC_OscConfig+0x2d6>
        assert_param(IS_RCC_PLLN_VALUE(RCC_OscInitStruct->PLL.PLLN));
        assert_param(IS_RCC_PLLP_VALUE(RCC_OscInitStruct->PLL.PLLP));
        assert_param(IS_RCC_PLLQ_VALUE(RCC_OscInitStruct->PLL.PLLQ));

        /* Disable the main PLL. */
        __HAL_RCC_PLL_DISABLE();
 8002cb0:	4b53      	ldr	r3, [pc, #332]	; (8002e00 <HAL_RCC_OscConfig+0x294>)
 8002cb2:	2200      	movs	r2, #0
      if((RCC_OscInitStruct->PLL.PLLState) == RCC_PLL_ON)
 8002cb4:	2802      	cmp	r0, #2
        __HAL_RCC_PLL_DISABLE();
 8002cb6:	661a      	str	r2, [r3, #96]	; 0x60
      if((RCC_OscInitStruct->PLL.PLLState) == RCC_PLL_ON)
 8002cb8:	f000 8109 	beq.w	8002ece <HAL_RCC_OscConfig+0x362>
      {
        /* Disable the main PLL. */
        __HAL_RCC_PLL_DISABLE();

        /* Get Start Tick */
        tickstart = HAL_GetTick();
 8002cbc:	f7ff f8f6 	bl	8001eac <HAL_GetTick>
 8002cc0:	4604      	mov	r4, r0

        /* Wait till PLL is ready */
        while(__HAL_RCC_GET_FLAG(RCC_FLAG_PLLRDY) != RESET)
 8002cc2:	e005      	b.n	8002cd0 <HAL_RCC_OscConfig+0x164>
        {
          if((HAL_GetTick() - tickstart ) > PLL_TIMEOUT_VALUE)
 8002cc4:	f7ff f8f2 	bl	8001eac <HAL_GetTick>
 8002cc8:	1b00      	subs	r0, r0, r4
 8002cca:	2802      	cmp	r0, #2
 8002ccc:	f200 8085 	bhi.w	8002dda <HAL_RCC_OscConfig+0x26e>
        while(__HAL_RCC_GET_FLAG(RCC_FLAG_PLLRDY) != RESET)
 8002cd0:	682b      	ldr	r3, [r5, #0]
 8002cd2:	019b      	lsls	r3, r3, #6
 8002cd4:	d4f6      	bmi.n	8002cc4 <HAL_RCC_OscConfig+0x158>
          return HAL_ERROR;
        }
      }
    }
  }
  return HAL_OK;
 8002cd6:	2000      	movs	r0, #0
}
 8002cd8:	b002      	add	sp, #8
 8002cda:	e8bd 81f0 	ldmia.w	sp!, {r4, r5, r6, r7, r8, pc}
    if((RCC_OscInitStruct->LSIState)!= RCC_LSI_OFF)
 8002cde:	6963      	ldr	r3, [r4, #20]
 8002ce0:	b30b      	cbz	r3, 8002d26 <HAL_RCC_OscConfig+0x1ba>
      __HAL_RCC_LSI_ENABLE();
 8002ce2:	4b47      	ldr	r3, [pc, #284]	; (8002e00 <HAL_RCC_OscConfig+0x294>)
      while(__HAL_RCC_GET_FLAG(RCC_FLAG_LSIRDY) == RESET)
 8002ce4:	4e45      	ldr	r6, [pc, #276]	; (8002dfc <HAL_RCC_OscConfig+0x290>)
      __HAL_RCC_LSI_ENABLE();
 8002ce6:	2201      	movs	r2, #1
 8002ce8:	f8c3 2e80 	str.w	r2, [r3, #3712]	; 0xe80
      tickstart = HAL_GetTick();
 8002cec:	f7ff f8de 	bl	8001eac <HAL_GetTick>
 8002cf0:	4605      	mov	r5, r0
      while(__HAL_RCC_GET_FLAG(RCC_FLAG_LSIRDY) == RESET)
 8002cf2:	e004      	b.n	8002cfe <HAL_RCC_OscConfig+0x192>
        if((HAL_GetTick() - tickstart ) > LSI_TIMEOUT_VALUE)
 8002cf4:	f7ff f8da 	bl	8001eac <HAL_GetTick>
 8002cf8:	1b40      	subs	r0, r0, r5
 8002cfa:	2802      	cmp	r0, #2
 8002cfc:	d86d      	bhi.n	8002dda <HAL_RCC_OscConfig+0x26e>
      while(__HAL_RCC_GET_FLAG(RCC_FLAG_LSIRDY) == RESET)
 8002cfe:	6f73      	ldr	r3, [r6, #116]	; 0x74
 8002d00:	079b      	lsls	r3, r3, #30
 8002d02:	d5f7      	bpl.n	8002cf4 <HAL_RCC_OscConfig+0x188>
  if(((RCC_OscInitStruct->OscillatorType) & RCC_OSCILLATORTYPE_LSE) == RCC_OSCILLATORTYPE_LSE)
 8002d04:	6823      	ldr	r3, [r4, #0]
 8002d06:	e798      	b.n	8002c3a <HAL_RCC_OscConfig+0xce>
      ((__HAL_RCC_GET_SYSCLK_SOURCE() == RCC_CFGR_SWS_PLL) && ((RCC->PLLCFGR & RCC_PLLCFGR_PLLSRC) == RCC_PLLCFGR_PLLSRC_HSI)))
 8002d08:	6852      	ldr	r2, [r2, #4]
 8002d0a:	0256      	lsls	r6, r2, #9
 8002d0c:	f53f af76 	bmi.w	8002bfc <HAL_RCC_OscConfig+0x90>
      if((__HAL_RCC_GET_FLAG(RCC_FLAG_HSIRDY) != RESET) && (RCC_OscInitStruct->HSIState != RCC_HSI_ON))
 8002d10:	4a3a      	ldr	r2, [pc, #232]	; (8002dfc <HAL_RCC_OscConfig+0x290>)
 8002d12:	6812      	ldr	r2, [r2, #0]
 8002d14:	0795      	lsls	r5, r2, #30
 8002d16:	d544      	bpl.n	8002da2 <HAL_RCC_OscConfig+0x236>
 8002d18:	68e2      	ldr	r2, [r4, #12]
 8002d1a:	2a01      	cmp	r2, #1
 8002d1c:	d041      	beq.n	8002da2 <HAL_RCC_OscConfig+0x236>
        return HAL_ERROR;
 8002d1e:	2001      	movs	r0, #1
}
 8002d20:	b002      	add	sp, #8
 8002d22:	e8bd 81f0 	ldmia.w	sp!, {r4, r5, r6, r7, r8, pc}
      __HAL_RCC_LSI_DISABLE();
 8002d26:	4a36      	ldr	r2, [pc, #216]	; (8002e00 <HAL_RCC_OscConfig+0x294>)
      while(__HAL_RCC_GET_FLAG(RCC_FLAG_LSIRDY) != RESET)
 8002d28:	4e34      	ldr	r6, [pc, #208]	; (8002dfc <HAL_RCC_OscConfig+0x290>)
      __HAL_RCC_LSI_DISABLE();
 8002d2a:	f8c2 3e80 	str.w	r3, [r2, #3712]	; 0xe80
      tickstart = HAL_GetTick();
 8002d2e:	f7ff f8bd 	bl	8001eac <HAL_GetTick>
 8002d32:	4605      	mov	r5, r0
      while(__HAL_RCC_GET_FLAG(RCC_FLAG_LSIRDY) != RESET)
 8002d34:	e004      	b.n	8002d40 <HAL_RCC_OscConfig+0x1d4>
        if((HAL_GetTick() - tickstart ) > LSI_TIMEOUT_VALUE)
 8002d36:	f7ff f8b9 	bl	8001eac <HAL_GetTick>
 8002d3a:	1b40      	subs	r0, r0, r5
 8002d3c:	2802      	cmp	r0, #2
 8002d3e:	d84c      	bhi.n	8002dda <HAL_RCC_OscConfig+0x26e>
      while(__HAL_RCC_GET_FLAG(RCC_FLAG_LSIRDY) != RESET)
 8002d40:	6f73      	ldr	r3, [r6, #116]	; 0x74
 8002d42:	079f      	lsls	r7, r3, #30
 8002d44:	d4f7      	bmi.n	8002d36 <HAL_RCC_OscConfig+0x1ca>
 8002d46:	e7dd      	b.n	8002d04 <HAL_RCC_OscConfig+0x198>
      __HAL_RCC_PWR_CLK_ENABLE();
 8002d48:	9301      	str	r3, [sp, #4]
 8002d4a:	6c13      	ldr	r3, [r2, #64]	; 0x40
 8002d4c:	f043 5380 	orr.w	r3, r3, #268435456	; 0x10000000
 8002d50:	6413      	str	r3, [r2, #64]	; 0x40
 8002d52:	6c13      	ldr	r3, [r2, #64]	; 0x40
 8002d54:	f003 5380 	and.w	r3, r3, #268435456	; 0x10000000
 8002d58:	9301      	str	r3, [sp, #4]
 8002d5a:	9b01      	ldr	r3, [sp, #4]
      pwrclkchanged = SET;
 8002d5c:	2501      	movs	r5, #1
 8002d5e:	e774      	b.n	8002c4a <HAL_RCC_OscConfig+0xde>
      ((__HAL_RCC_GET_SYSCLK_SOURCE() == RCC_CFGR_SWS_PLL) && ((RCC->PLLCFGR & RCC_PLLCFGR_PLLSRC) == RCC_PLLCFGR_PLLSRC_HSE)))
 8002d60:	684a      	ldr	r2, [r1, #4]
 8002d62:	0250      	lsls	r0, r2, #9
 8002d64:	f57f af19 	bpl.w	8002b9a <HAL_RCC_OscConfig+0x2e>
      if((__HAL_RCC_GET_FLAG(RCC_FLAG_HSERDY) != RESET) && (RCC_OscInitStruct->HSEState == RCC_HSE_OFF))
 8002d68:	4a24      	ldr	r2, [pc, #144]	; (8002dfc <HAL_RCC_OscConfig+0x290>)
 8002d6a:	6812      	ldr	r2, [r2, #0]
 8002d6c:	0391      	lsls	r1, r2, #14
 8002d6e:	f57f af37 	bpl.w	8002be0 <HAL_RCC_OscConfig+0x74>
 8002d72:	6862      	ldr	r2, [r4, #4]
 8002d74:	2a00      	cmp	r2, #0
 8002d76:	f47f af33 	bne.w	8002be0 <HAL_RCC_OscConfig+0x74>
 8002d7a:	e7d0      	b.n	8002d1e <HAL_RCC_OscConfig+0x1b2>
      __HAL_RCC_HSE_CONFIG(RCC_OscInitStruct->HSEState);
 8002d7c:	4a1f      	ldr	r2, [pc, #124]	; (8002dfc <HAL_RCC_OscConfig+0x290>)
 8002d7e:	6813      	ldr	r3, [r2, #0]
 8002d80:	f443 3380 	orr.w	r3, r3, #65536	; 0x10000
 8002d84:	6013      	str	r3, [r2, #0]
        tickstart = HAL_GetTick();
 8002d86:	f7ff f891 	bl	8001eac <HAL_GetTick>
        while(__HAL_RCC_GET_FLAG(RCC_FLAG_HSERDY) == RESET)
 8002d8a:	4e1c      	ldr	r6, [pc, #112]	; (8002dfc <HAL_RCC_OscConfig+0x290>)
        tickstart = HAL_GetTick();
 8002d8c:	4605      	mov	r5, r0
        while(__HAL_RCC_GET_FLAG(RCC_FLAG_HSERDY) == RESET)
 8002d8e:	e004      	b.n	8002d9a <HAL_RCC_OscConfig+0x22e>
          if((HAL_GetTick() - tickstart ) > HSE_TIMEOUT_VALUE)
 8002d90:	f7ff f88c 	bl	8001eac <HAL_GetTick>
 8002d94:	1b40      	subs	r0, r0, r5
 8002d96:	2864      	cmp	r0, #100	; 0x64
 8002d98:	d81f      	bhi.n	8002dda <HAL_RCC_OscConfig+0x26e>
        while(__HAL_RCC_GET_FLAG(RCC_FLAG_HSERDY) == RESET)
 8002d9a:	6833      	ldr	r3, [r6, #0]
 8002d9c:	039a      	lsls	r2, r3, #14
 8002d9e:	d5f7      	bpl.n	8002d90 <HAL_RCC_OscConfig+0x224>
 8002da0:	e71d      	b.n	8002bde <HAL_RCC_OscConfig+0x72>
        __HAL_RCC_HSI_CALIBRATIONVALUE_ADJUST(RCC_OscInitStruct->HSICalibrationValue);
 8002da2:	4916      	ldr	r1, [pc, #88]	; (8002dfc <HAL_RCC_OscConfig+0x290>)
 8002da4:	6920      	ldr	r0, [r4, #16]
 8002da6:	680a      	ldr	r2, [r1, #0]
 8002da8:	f022 02f8 	bic.w	r2, r2, #248	; 0xf8
 8002dac:	ea42 02c0 	orr.w	r2, r2, r0, lsl #3
 8002db0:	600a      	str	r2, [r1, #0]
  if(((RCC_OscInitStruct->OscillatorType) & RCC_OSCILLATORTYPE_LSI) == RCC_OSCILLATORTYPE_LSI)
 8002db2:	071a      	lsls	r2, r3, #28
 8002db4:	f57f af41 	bpl.w	8002c3a <HAL_RCC_OscConfig+0xce>
 8002db8:	e791      	b.n	8002cde <HAL_RCC_OscConfig+0x172>
      SET_BIT(PWR->CR, PWR_CR_DBP);
 8002dba:	6833      	ldr	r3, [r6, #0]
 8002dbc:	f443 7380 	orr.w	r3, r3, #256	; 0x100
 8002dc0:	6033      	str	r3, [r6, #0]
      tickstart = HAL_GetTick();
 8002dc2:	f7ff f873 	bl	8001eac <HAL_GetTick>
 8002dc6:	4607      	mov	r7, r0
      while(HAL_IS_BIT_CLR(PWR->CR, PWR_CR_DBP))
 8002dc8:	6833      	ldr	r3, [r6, #0]
 8002dca:	05da      	lsls	r2, r3, #23
 8002dcc:	f53f af42 	bmi.w	8002c54 <HAL_RCC_OscConfig+0xe8>
        if((HAL_GetTick() - tickstart) > RCC_DBP_TIMEOUT_VALUE)
 8002dd0:	f7ff f86c 	bl	8001eac <HAL_GetTick>
 8002dd4:	1bc0      	subs	r0, r0, r7
 8002dd6:	2802      	cmp	r0, #2
 8002dd8:	d9f6      	bls.n	8002dc8 <HAL_RCC_OscConfig+0x25c>
            return HAL_TIMEOUT;
 8002dda:	2003      	movs	r0, #3
}
 8002ddc:	b002      	add	sp, #8
 8002dde:	e8bd 81f0 	ldmia.w	sp!, {r4, r5, r6, r7, r8, pc}
    __HAL_RCC_LSE_CONFIG(RCC_OscInitStruct->LSEState);
 8002de2:	4a06      	ldr	r2, [pc, #24]	; (8002dfc <HAL_RCC_OscConfig+0x290>)
 8002de4:	6f13      	ldr	r3, [r2, #112]	; 0x70
 8002de6:	f043 0301 	orr.w	r3, r3, #1
 8002dea:	6713      	str	r3, [r2, #112]	; 0x70
      tickstart = HAL_GetTick();
 8002dec:	f7ff f85e 	bl	8001eac <HAL_GetTick>
      while(__HAL_RCC_GET_FLAG(RCC_FLAG_LSERDY) == RESET)
 8002df0:	4f02      	ldr	r7, [pc, #8]	; (8002dfc <HAL_RCC_OscConfig+0x290>)
      tickstart = HAL_GetTick();
 8002df2:	4606      	mov	r6, r0
        if((HAL_GetTick() - tickstart ) > RCC_LSE_TIMEOUT_VALUE)
 8002df4:	f241 3888 	movw	r8, #5000	; 0x1388
      while(__HAL_RCC_GET_FLAG(RCC_FLAG_LSERDY) == RESET)
 8002df8:	e00b      	b.n	8002e12 <HAL_RCC_OscConfig+0x2a6>
 8002dfa:	bf00      	nop
 8002dfc:	40023800 	.word	0x40023800
 8002e00:	42470000 	.word	0x42470000
 8002e04:	40007000 	.word	0x40007000
        if((HAL_GetTick() - tickstart ) > RCC_LSE_TIMEOUT_VALUE)
 8002e08:	f7ff f850 	bl	8001eac <HAL_GetTick>
 8002e0c:	1b80      	subs	r0, r0, r6
 8002e0e:	4540      	cmp	r0, r8
 8002e10:	d8e3      	bhi.n	8002dda <HAL_RCC_OscConfig+0x26e>
      while(__HAL_RCC_GET_FLAG(RCC_FLAG_LSERDY) == RESET)
 8002e12:	6f3b      	ldr	r3, [r7, #112]	; 0x70
 8002e14:	079b      	lsls	r3, r3, #30
 8002e16:	d5f7      	bpl.n	8002e08 <HAL_RCC_OscConfig+0x29c>
    if(pwrclkchanged == SET)
 8002e18:	2d00      	cmp	r5, #0
 8002e1a:	f43f af40 	beq.w	8002c9e <HAL_RCC_OscConfig+0x132>
 8002e1e:	e044      	b.n	8002eaa <HAL_RCC_OscConfig+0x33e>
        __HAL_RCC_HSI_DISABLE();
 8002e20:	4a42      	ldr	r2, [pc, #264]	; (8002f2c <HAL_RCC_OscConfig+0x3c0>)
        while(__HAL_RCC_GET_FLAG(RCC_FLAG_HSIRDY) != RESET)
 8002e22:	4e43      	ldr	r6, [pc, #268]	; (8002f30 <HAL_RCC_OscConfig+0x3c4>)
        __HAL_RCC_HSI_DISABLE();
 8002e24:	6013      	str	r3, [r2, #0]
        tickstart = HAL_GetTick();
 8002e26:	f7ff f841 	bl	8001eac <HAL_GetTick>
 8002e2a:	4605      	mov	r5, r0
        while(__HAL_RCC_GET_FLAG(RCC_FLAG_HSIRDY) != RESET)
 8002e2c:	e004      	b.n	8002e38 <HAL_RCC_OscConfig+0x2cc>
          if((HAL_GetTick() - tickstart ) > HSI_TIMEOUT_VALUE)
 8002e2e:	f7ff f83d 	bl	8001eac <HAL_GetTick>
 8002e32:	1b40      	subs	r0, r0, r5
 8002e34:	2802      	cmp	r0, #2
 8002e36:	d8d0      	bhi.n	8002dda <HAL_RCC_OscConfig+0x26e>
        while(__HAL_RCC_GET_FLAG(RCC_FLAG_HSIRDY) != RESET)
 8002e38:	6833      	ldr	r3, [r6, #0]
 8002e3a:	0799      	lsls	r1, r3, #30
 8002e3c:	d4f7      	bmi.n	8002e2e <HAL_RCC_OscConfig+0x2c2>
  if(((RCC_OscInitStruct->OscillatorType) & RCC_OSCILLATORTYPE_LSI) == RCC_OSCILLATORTYPE_LSI)
 8002e3e:	6823      	ldr	r3, [r4, #0]
 8002e40:	e6f9      	b.n	8002c36 <HAL_RCC_OscConfig+0xca>
      if((RCC_OscInitStruct->PLL.PLLState) == RCC_PLL_OFF)
 8002e42:	2801      	cmp	r0, #1
 8002e44:	f43f af48 	beq.w	8002cd8 <HAL_RCC_OscConfig+0x16c>
        pll_config = RCC->PLLCFGR;
 8002e48:	686b      	ldr	r3, [r5, #4]
        if (((RCC_OscInitStruct->PLL.PLLState) == RCC_PLL_OFF) ||
 8002e4a:	69e2      	ldr	r2, [r4, #28]
            (READ_BIT(pll_config, RCC_PLLCFGR_PLLSRC) != RCC_OscInitStruct->PLL.PLLSource) ||
 8002e4c:	f403 0180 	and.w	r1, r3, #4194304	; 0x400000
        if (((RCC_OscInitStruct->PLL.PLLState) == RCC_PLL_OFF) ||
 8002e50:	4291      	cmp	r1, r2
 8002e52:	f47f af64 	bne.w	8002d1e <HAL_RCC_OscConfig+0x1b2>
            (READ_BIT(pll_config, RCC_PLLCFGR_PLLSRC) != RCC_OscInitStruct->PLL.PLLSource) ||
 8002e56:	6a22      	ldr	r2, [r4, #32]
            (READ_BIT(pll_config, RCC_PLLCFGR_PLLM) != (RCC_OscInitStruct->PLL.PLLM) << RCC_PLLCFGR_PLLM_Pos) ||
 8002e58:	f003 013f 	and.w	r1, r3, #63	; 0x3f
            (READ_BIT(pll_config, RCC_PLLCFGR_PLLSRC) != RCC_OscInitStruct->PLL.PLLSource) ||
 8002e5c:	4291      	cmp	r1, r2
 8002e5e:	f47f af5e 	bne.w	8002d1e <HAL_RCC_OscConfig+0x1b2>
            (READ_BIT(pll_config, RCC_PLLCFGR_PLLN) != (RCC_OscInitStruct->PLL.PLLN) << RCC_PLLCFGR_PLLN_Pos) ||
 8002e62:	6a61      	ldr	r1, [r4, #36]	; 0x24
 8002e64:	f647 72c0 	movw	r2, #32704	; 0x7fc0
 8002e68:	401a      	ands	r2, r3
            (READ_BIT(pll_config, RCC_PLLCFGR_PLLM) != (RCC_OscInitStruct->PLL.PLLM) << RCC_PLLCFGR_PLLM_Pos) ||
 8002e6a:	ebb2 1f81 	cmp.w	r2, r1, lsl #6
 8002e6e:	f47f af56 	bne.w	8002d1e <HAL_RCC_OscConfig+0x1b2>
            (READ_BIT(pll_config, RCC_PLLCFGR_PLLP) != (((RCC_OscInitStruct->PLL.PLLP >> 1U) - 1U)) << RCC_PLLCFGR_PLLP_Pos) ||
 8002e72:	6aa2      	ldr	r2, [r4, #40]	; 0x28
 8002e74:	0852      	lsrs	r2, r2, #1
 8002e76:	f403 3140 	and.w	r1, r3, #196608	; 0x30000
 8002e7a:	3a01      	subs	r2, #1
            (READ_BIT(pll_config, RCC_PLLCFGR_PLLN) != (RCC_OscInitStruct->PLL.PLLN) << RCC_PLLCFGR_PLLN_Pos) ||
 8002e7c:	ebb1 4f02 	cmp.w	r1, r2, lsl #16
 8002e80:	f47f af4d 	bne.w	8002d1e <HAL_RCC_OscConfig+0x1b2>
            (READ_BIT(pll_config, RCC_PLLCFGR_PLLQ) != (RCC_OscInitStruct->PLL.PLLQ << RCC_PLLCFGR_PLLQ_Pos)))
 8002e84:	6ae2      	ldr	r2, [r4, #44]	; 0x2c
 8002e86:	f003 6370 	and.w	r3, r3, #251658240	; 0xf000000
            (READ_BIT(pll_config, RCC_PLLCFGR_PLLP) != (((RCC_OscInitStruct->PLL.PLLP >> 1U) - 1U)) << RCC_PLLCFGR_PLLP_Pos) ||
 8002e8a:	ebb3 6f02 	cmp.w	r3, r2, lsl #24
            return HAL_TIMEOUT;
 8002e8e:	bf14      	ite	ne
 8002e90:	2001      	movne	r0, #1
 8002e92:	2000      	moveq	r0, #0
 8002e94:	e720      	b.n	8002cd8 <HAL_RCC_OscConfig+0x16c>
      __HAL_RCC_HSE_CONFIG(RCC_OscInitStruct->HSEState);
 8002e96:	4b26      	ldr	r3, [pc, #152]	; (8002f30 <HAL_RCC_OscConfig+0x3c4>)
 8002e98:	681a      	ldr	r2, [r3, #0]
 8002e9a:	f442 2280 	orr.w	r2, r2, #262144	; 0x40000
 8002e9e:	601a      	str	r2, [r3, #0]
 8002ea0:	681a      	ldr	r2, [r3, #0]
 8002ea2:	f442 3280 	orr.w	r2, r2, #65536	; 0x10000
 8002ea6:	601a      	str	r2, [r3, #0]
 8002ea8:	e76d      	b.n	8002d86 <HAL_RCC_OscConfig+0x21a>
      __HAL_RCC_PWR_CLK_DISABLE();
 8002eaa:	4a21      	ldr	r2, [pc, #132]	; (8002f30 <HAL_RCC_OscConfig+0x3c4>)
 8002eac:	6c13      	ldr	r3, [r2, #64]	; 0x40
 8002eae:	f023 5380 	bic.w	r3, r3, #268435456	; 0x10000000
 8002eb2:	6413      	str	r3, [r2, #64]	; 0x40
 8002eb4:	e6f3      	b.n	8002c9e <HAL_RCC_OscConfig+0x132>
    return HAL_ERROR;
 8002eb6:	2001      	movs	r0, #1
}
 8002eb8:	4770      	bx	lr
    __HAL_RCC_LSE_CONFIG(RCC_OscInitStruct->LSEState);
 8002eba:	4b1d      	ldr	r3, [pc, #116]	; (8002f30 <HAL_RCC_OscConfig+0x3c4>)
 8002ebc:	6f1a      	ldr	r2, [r3, #112]	; 0x70
 8002ebe:	f042 0204 	orr.w	r2, r2, #4
 8002ec2:	671a      	str	r2, [r3, #112]	; 0x70
 8002ec4:	6f1a      	ldr	r2, [r3, #112]	; 0x70
 8002ec6:	f042 0201 	orr.w	r2, r2, #1
 8002eca:	671a      	str	r2, [r3, #112]	; 0x70
 8002ecc:	e78e      	b.n	8002dec <HAL_RCC_OscConfig+0x280>
        tickstart = HAL_GetTick();
 8002ece:	f7fe ffed 	bl	8001eac <HAL_GetTick>
 8002ed2:	4606      	mov	r6, r0
        while(__HAL_RCC_GET_FLAG(RCC_FLAG_PLLRDY) != RESET)
 8002ed4:	e005      	b.n	8002ee2 <HAL_RCC_OscConfig+0x376>
          if((HAL_GetTick() - tickstart ) > PLL_TIMEOUT_VALUE)
 8002ed6:	f7fe ffe9 	bl	8001eac <HAL_GetTick>
 8002eda:	1b80      	subs	r0, r0, r6
 8002edc:	2802      	cmp	r0, #2
 8002ede:	f63f af7c 	bhi.w	8002dda <HAL_RCC_OscConfig+0x26e>
        while(__HAL_RCC_GET_FLAG(RCC_FLAG_PLLRDY) != RESET)
 8002ee2:	682b      	ldr	r3, [r5, #0]
 8002ee4:	0199      	lsls	r1, r3, #6
 8002ee6:	d4f6      	bmi.n	8002ed6 <HAL_RCC_OscConfig+0x36a>
        WRITE_REG(RCC->PLLCFGR, (RCC_OscInitStruct->PLL.PLLSource                                            | \
 8002ee8:	e9d4 3107 	ldrd	r3, r1, [r4, #28]
 8002eec:	6a62      	ldr	r2, [r4, #36]	; 0x24
 8002eee:	430b      	orrs	r3, r1
 8002ef0:	ea43 1382 	orr.w	r3, r3, r2, lsl #6
 8002ef4:	e9d4 210a 	ldrd	r2, r1, [r4, #40]	; 0x28
 8002ef8:	0852      	lsrs	r2, r2, #1
 8002efa:	ea43 6301 	orr.w	r3, r3, r1, lsl #24
 8002efe:	3a01      	subs	r2, #1
        __HAL_RCC_PLL_ENABLE();
 8002f00:	490a      	ldr	r1, [pc, #40]	; (8002f2c <HAL_RCC_OscConfig+0x3c0>)
        WRITE_REG(RCC->PLLCFGR, (RCC_OscInitStruct->PLL.PLLSource                                            | \
 8002f02:	ea43 4302 	orr.w	r3, r3, r2, lsl #16
        __HAL_RCC_PLL_ENABLE();
 8002f06:	2201      	movs	r2, #1
        WRITE_REG(RCC->PLLCFGR, (RCC_OscInitStruct->PLL.PLLSource                                            | \
 8002f08:	606b      	str	r3, [r5, #4]
        __HAL_RCC_PLL_ENABLE();
 8002f0a:	660a      	str	r2, [r1, #96]	; 0x60
        tickstart = HAL_GetTick();
 8002f0c:	f7fe ffce 	bl	8001eac <HAL_GetTick>
        while(__HAL_RCC_GET_FLAG(RCC_FLAG_PLLRDY) == RESET)
 8002f10:	4d07      	ldr	r5, [pc, #28]	; (8002f30 <HAL_RCC_OscConfig+0x3c4>)
        tickstart = HAL_GetTick();
 8002f12:	4604      	mov	r4, r0
        while(__HAL_RCC_GET_FLAG(RCC_FLAG_PLLRDY) == RESET)
 8002f14:	e005      	b.n	8002f22 <HAL_RCC_OscConfig+0x3b6>
          if((HAL_GetTick() - tickstart ) > PLL_TIMEOUT_VALUE)
 8002f16:	f7fe ffc9 	bl	8001eac <HAL_GetTick>
 8002f1a:	1b00      	subs	r0, r0, r4
 8002f1c:	2802      	cmp	r0, #2
 8002f1e:	f63f af5c 	bhi.w	8002dda <HAL_RCC_OscConfig+0x26e>
        while(__HAL_RCC_GET_FLAG(RCC_FLAG_PLLRDY) == RESET)
 8002f22:	682b      	ldr	r3, [r5, #0]
 8002f24:	019a      	lsls	r2, r3, #6
 8002f26:	d5f6      	bpl.n	8002f16 <HAL_RCC_OscConfig+0x3aa>
 8002f28:	e6d5      	b.n	8002cd6 <HAL_RCC_OscConfig+0x16a>
 8002f2a:	bf00      	nop
 8002f2c:	42470000 	.word	0x42470000
 8002f30:	40023800 	.word	0x40023800

08002f34 <HAL_RCC_GetSysClockFreq>:
{
  uint32_t pllm = 0U, pllvco = 0U, pllp = 0U;
  uint32_t sysclockfreq = 0U;

  /* Get SYSCLK source -------------------------------------------------------*/
  switch (RCC->CFGR & RCC_CFGR_SWS)
 8002f34:	4916      	ldr	r1, [pc, #88]	; (8002f90 <HAL_RCC_GetSysClockFreq+0x5c>)
{
 8002f36:	b508      	push	{r3, lr}
  switch (RCC->CFGR & RCC_CFGR_SWS)
 8002f38:	688b      	ldr	r3, [r1, #8]
 8002f3a:	f003 030c 	and.w	r3, r3, #12
 8002f3e:	2b04      	cmp	r3, #4
 8002f40:	d01b      	beq.n	8002f7a <HAL_RCC_GetSysClockFreq+0x46>
 8002f42:	2b08      	cmp	r3, #8
 8002f44:	d117      	bne.n	8002f76 <HAL_RCC_GetSysClockFreq+0x42>
    }
    case RCC_CFGR_SWS_PLL:  /* PLL used as system clock  source */
    {
      /* PLL_VCO = (HSE_VALUE or HSI_VALUE / PLLM) * PLLN
      SYSCLK = PLL_VCO / PLLP */
      pllm = RCC->PLLCFGR & RCC_PLLCFGR_PLLM;
 8002f46:	684a      	ldr	r2, [r1, #4]
      if(__HAL_RCC_GET_PLL_OSCSOURCE() != RCC_PLLSOURCE_HSI)
 8002f48:	684b      	ldr	r3, [r1, #4]
      {
        /* HSE used as PLL clock source */
        pllvco = (uint32_t) ((((uint64_t) HSE_VALUE * ((uint64_t) ((RCC->PLLCFGR & RCC_PLLCFGR_PLLN) >> RCC_PLLCFGR_PLLN_Pos)))) / (uint64_t)pllm);
 8002f4a:	6849      	ldr	r1, [r1, #4]
      if(__HAL_RCC_GET_PLL_OSCSOURCE() != RCC_PLLSOURCE_HSI)
 8002f4c:	f413 0380 	ands.w	r3, r3, #4194304	; 0x400000
      pllm = RCC->PLLCFGR & RCC_PLLCFGR_PLLM;
 8002f50:	f002 023f 	and.w	r2, r2, #63	; 0x3f
      if(__HAL_RCC_GET_PLL_OSCSOURCE() != RCC_PLLSOURCE_HSI)
 8002f54:	d113      	bne.n	8002f7e <HAL_RCC_GetSysClockFreq+0x4a>
      }
      else
      {
        /* HSI used as PLL clock source */
        pllvco = (uint32_t) ((((uint64_t) HSI_VALUE * ((uint64_t) ((RCC->PLLCFGR & RCC_PLLCFGR_PLLN) >> RCC_PLLCFGR_PLLN_Pos)))) / (uint64_t)pllm);
 8002f56:	480f      	ldr	r0, [pc, #60]	; (8002f94 <HAL_RCC_GetSysClockFreq+0x60>)
 8002f58:	f3c1 1188 	ubfx	r1, r1, #6, #9
 8002f5c:	fba1 0100 	umull	r0, r1, r1, r0
 8002f60:	f7fd fb7e 	bl	8000660 <__aeabi_uldivmod>
      }
      pllp = ((((RCC->PLLCFGR & RCC_PLLCFGR_PLLP) >> RCC_PLLCFGR_PLLP_Pos) + 1U) *2U);
 8002f64:	4b0a      	ldr	r3, [pc, #40]	; (8002f90 <HAL_RCC_GetSysClockFreq+0x5c>)
 8002f66:	685b      	ldr	r3, [r3, #4]
 8002f68:	f3c3 4301 	ubfx	r3, r3, #16, #2
 8002f6c:	3301      	adds	r3, #1
 8002f6e:	005b      	lsls	r3, r3, #1

      sysclockfreq = pllvco/pllp;
 8002f70:	fbb0 f0f3 	udiv	r0, r0, r3
      sysclockfreq = HSI_VALUE;
      break;
    }
  }
  return sysclockfreq;
}
 8002f74:	bd08      	pop	{r3, pc}
      sysclockfreq = HSI_VALUE;
 8002f76:	4807      	ldr	r0, [pc, #28]	; (8002f94 <HAL_RCC_GetSysClockFreq+0x60>)
}
 8002f78:	bd08      	pop	{r3, pc}
  switch (RCC->CFGR & RCC_CFGR_SWS)
 8002f7a:	4807      	ldr	r0, [pc, #28]	; (8002f98 <HAL_RCC_GetSysClockFreq+0x64>)
}
 8002f7c:	bd08      	pop	{r3, pc}
        pllvco = (uint32_t) ((((uint64_t) HSE_VALUE * ((uint64_t) ((RCC->PLLCFGR & RCC_PLLCFGR_PLLN) >> RCC_PLLCFGR_PLLN_Pos)))) / (uint64_t)pllm);
 8002f7e:	4806      	ldr	r0, [pc, #24]	; (8002f98 <HAL_RCC_GetSysClockFreq+0x64>)
 8002f80:	f3c1 1188 	ubfx	r1, r1, #6, #9
 8002f84:	2300      	movs	r3, #0
 8002f86:	fba1 0100 	umull	r0, r1, r1, r0
 8002f8a:	f7fd fb69 	bl	8000660 <__aeabi_uldivmod>
 8002f8e:	e7e9      	b.n	8002f64 <HAL_RCC_GetSysClockFreq+0x30>
 8002f90:	40023800 	.word	0x40023800
 8002f94:	00f42400 	.word	0x00f42400
 8002f98:	007a1200 	.word	0x007a1200

08002f9c <HAL_RCC_ClockConfig>:
  if(RCC_ClkInitStruct == NULL)
 8002f9c:	2800      	cmp	r0, #0
 8002f9e:	f000 8087 	beq.w	80030b0 <HAL_RCC_ClockConfig+0x114>
  if(FLatency > __HAL_FLASH_GET_LATENCY())
 8002fa2:	4a48      	ldr	r2, [pc, #288]	; (80030c4 <HAL_RCC_ClockConfig+0x128>)
 8002fa4:	6813      	ldr	r3, [r2, #0]
 8002fa6:	f003 0307 	and.w	r3, r3, #7
 8002faa:	428b      	cmp	r3, r1
{
 8002fac:	e92d 41f0 	stmdb	sp!, {r4, r5, r6, r7, r8, lr}
 8002fb0:	460d      	mov	r5, r1
 8002fb2:	4604      	mov	r4, r0
  if(FLatency > __HAL_FLASH_GET_LATENCY())
 8002fb4:	d209      	bcs.n	8002fca <HAL_RCC_ClockConfig+0x2e>
    __HAL_FLASH_SET_LATENCY(FLatency);
 8002fb6:	b2cb      	uxtb	r3, r1
 8002fb8:	7013      	strb	r3, [r2, #0]
    if(__HAL_FLASH_GET_LATENCY() != FLatency)
 8002fba:	6813      	ldr	r3, [r2, #0]
 8002fbc:	f003 0307 	and.w	r3, r3, #7
 8002fc0:	428b      	cmp	r3, r1
 8002fc2:	d002      	beq.n	8002fca <HAL_RCC_ClockConfig+0x2e>
    return HAL_ERROR;
 8002fc4:	2001      	movs	r0, #1
}
 8002fc6:	e8bd 81f0 	ldmia.w	sp!, {r4, r5, r6, r7, r8, pc}
  if(((RCC_ClkInitStruct->ClockType) & RCC_CLOCKTYPE_HCLK) == RCC_CLOCKTYPE_HCLK)
 8002fca:	6823      	ldr	r3, [r4, #0]
 8002fcc:	0798      	lsls	r0, r3, #30
 8002fce:	d514      	bpl.n	8002ffa <HAL_RCC_ClockConfig+0x5e>
    if(((RCC_ClkInitStruct->ClockType) & RCC_CLOCKTYPE_PCLK1) == RCC_CLOCKTYPE_PCLK1)
 8002fd0:	0759      	lsls	r1, r3, #29
 8002fd2:	d504      	bpl.n	8002fde <HAL_RCC_ClockConfig+0x42>
      MODIFY_REG(RCC->CFGR, RCC_CFGR_PPRE1, RCC_HCLK_DIV16);
 8002fd4:	493c      	ldr	r1, [pc, #240]	; (80030c8 <HAL_RCC_ClockConfig+0x12c>)
 8002fd6:	688a      	ldr	r2, [r1, #8]
 8002fd8:	f442 52e0 	orr.w	r2, r2, #7168	; 0x1c00
 8002fdc:	608a      	str	r2, [r1, #8]
    if(((RCC_ClkInitStruct->ClockType) & RCC_CLOCKTYPE_PCLK2) == RCC_CLOCKTYPE_PCLK2)
 8002fde:	071a      	lsls	r2, r3, #28
 8002fe0:	d504      	bpl.n	8002fec <HAL_RCC_ClockConfig+0x50>
      MODIFY_REG(RCC->CFGR, RCC_CFGR_PPRE2, (RCC_HCLK_DIV16 << 3));
 8002fe2:	4939      	ldr	r1, [pc, #228]	; (80030c8 <HAL_RCC_ClockConfig+0x12c>)
 8002fe4:	688a      	ldr	r2, [r1, #8]
 8002fe6:	f442 4260 	orr.w	r2, r2, #57344	; 0xe000
 8002fea:	608a      	str	r2, [r1, #8]
    MODIFY_REG(RCC->CFGR, RCC_CFGR_HPRE, RCC_ClkInitStruct->AHBCLKDivider);
 8002fec:	4936      	ldr	r1, [pc, #216]	; (80030c8 <HAL_RCC_ClockConfig+0x12c>)
 8002fee:	68a0      	ldr	r0, [r4, #8]
 8002ff0:	688a      	ldr	r2, [r1, #8]
 8002ff2:	f022 02f0 	bic.w	r2, r2, #240	; 0xf0
 8002ff6:	4302      	orrs	r2, r0
 8002ff8:	608a      	str	r2, [r1, #8]
  if(((RCC_ClkInitStruct->ClockType) & RCC_CLOCKTYPE_SYSCLK) == RCC_CLOCKTYPE_SYSCLK)
 8002ffa:	07df      	lsls	r7, r3, #31
 8002ffc:	d521      	bpl.n	8003042 <HAL_RCC_ClockConfig+0xa6>
    if(RCC_ClkInitStruct->SYSCLKSource == RCC_SYSCLKSOURCE_HSE)
 8002ffe:	6862      	ldr	r2, [r4, #4]
 8003000:	2a01      	cmp	r2, #1
 8003002:	d057      	beq.n	80030b4 <HAL_RCC_ClockConfig+0x118>
    else if((RCC_ClkInitStruct->SYSCLKSource == RCC_SYSCLKSOURCE_PLLCLK)   ||
 8003004:	1e93      	subs	r3, r2, #2
 8003006:	2b01      	cmp	r3, #1
      if(__HAL_RCC_GET_FLAG(RCC_FLAG_PLLRDY) == RESET)
 8003008:	4b2f      	ldr	r3, [pc, #188]	; (80030c8 <HAL_RCC_ClockConfig+0x12c>)
 800300a:	681b      	ldr	r3, [r3, #0]
    else if((RCC_ClkInitStruct->SYSCLKSource == RCC_SYSCLKSOURCE_PLLCLK)   ||
 800300c:	d94d      	bls.n	80030aa <HAL_RCC_ClockConfig+0x10e>
      if(__HAL_RCC_GET_FLAG(RCC_FLAG_HSIRDY) == RESET)
 800300e:	0799      	lsls	r1, r3, #30
 8003010:	d5d8      	bpl.n	8002fc4 <HAL_RCC_ClockConfig+0x28>
    __HAL_RCC_SYSCLK_CONFIG(RCC_ClkInitStruct->SYSCLKSource);
 8003012:	4e2d      	ldr	r6, [pc, #180]	; (80030c8 <HAL_RCC_ClockConfig+0x12c>)
 8003014:	68b3      	ldr	r3, [r6, #8]
 8003016:	f023 0303 	bic.w	r3, r3, #3
 800301a:	4313      	orrs	r3, r2
 800301c:	60b3      	str	r3, [r6, #8]
    tickstart = HAL_GetTick();
 800301e:	f7fe ff45 	bl	8001eac <HAL_GetTick>
      if ((HAL_GetTick() - tickstart) > CLOCKSWITCH_TIMEOUT_VALUE)
 8003022:	f241 3888 	movw	r8, #5000	; 0x1388
    tickstart = HAL_GetTick();
 8003026:	4607      	mov	r7, r0
    while (__HAL_RCC_GET_SYSCLK_SOURCE() != (RCC_ClkInitStruct->SYSCLKSource << RCC_CFGR_SWS_Pos))
 8003028:	e004      	b.n	8003034 <HAL_RCC_ClockConfig+0x98>
      if ((HAL_GetTick() - tickstart) > CLOCKSWITCH_TIMEOUT_VALUE)
 800302a:	f7fe ff3f 	bl	8001eac <HAL_GetTick>
 800302e:	1bc0      	subs	r0, r0, r7
 8003030:	4540      	cmp	r0, r8
 8003032:	d844      	bhi.n	80030be <HAL_RCC_ClockConfig+0x122>
    while (__HAL_RCC_GET_SYSCLK_SOURCE() != (RCC_ClkInitStruct->SYSCLKSource << RCC_CFGR_SWS_Pos))
 8003034:	68b3      	ldr	r3, [r6, #8]
 8003036:	6862      	ldr	r2, [r4, #4]
 8003038:	f003 030c 	and.w	r3, r3, #12
 800303c:	ebb3 0f82 	cmp.w	r3, r2, lsl #2
 8003040:	d1f3      	bne.n	800302a <HAL_RCC_ClockConfig+0x8e>
  if(FLatency < __HAL_FLASH_GET_LATENCY())
 8003042:	4a20      	ldr	r2, [pc, #128]	; (80030c4 <HAL_RCC_ClockConfig+0x128>)
 8003044:	6813      	ldr	r3, [r2, #0]
 8003046:	f003 0307 	and.w	r3, r3, #7
 800304a:	42ab      	cmp	r3, r5
 800304c:	d906      	bls.n	800305c <HAL_RCC_ClockConfig+0xc0>
    __HAL_FLASH_SET_LATENCY(FLatency);
 800304e:	b2eb      	uxtb	r3, r5
 8003050:	7013      	strb	r3, [r2, #0]
    if(__HAL_FLASH_GET_LATENCY() != FLatency)
 8003052:	6813      	ldr	r3, [r2, #0]
 8003054:	f003 0307 	and.w	r3, r3, #7
 8003058:	42ab      	cmp	r3, r5
 800305a:	d1b3      	bne.n	8002fc4 <HAL_RCC_ClockConfig+0x28>
  if(((RCC_ClkInitStruct->ClockType) & RCC_CLOCKTYPE_PCLK1) == RCC_CLOCKTYPE_PCLK1)
 800305c:	6823      	ldr	r3, [r4, #0]
 800305e:	075a      	lsls	r2, r3, #29
 8003060:	d506      	bpl.n	8003070 <HAL_RCC_ClockConfig+0xd4>
    MODIFY_REG(RCC->CFGR, RCC_CFGR_PPRE1, RCC_ClkInitStruct->APB1CLKDivider);
 8003062:	4919      	ldr	r1, [pc, #100]	; (80030c8 <HAL_RCC_ClockConfig+0x12c>)
 8003064:	68e0      	ldr	r0, [r4, #12]
 8003066:	688a      	ldr	r2, [r1, #8]
 8003068:	f422 52e0 	bic.w	r2, r2, #7168	; 0x1c00
 800306c:	4302      	orrs	r2, r0
 800306e:	608a      	str	r2, [r1, #8]
  if(((RCC_ClkInitStruct->ClockType) & RCC_CLOCKTYPE_PCLK2) == RCC_CLOCKTYPE_PCLK2)
 8003070:	071b      	lsls	r3, r3, #28
 8003072:	d507      	bpl.n	8003084 <HAL_RCC_ClockConfig+0xe8>
    MODIFY_REG(RCC->CFGR, RCC_CFGR_PPRE2, ((RCC_ClkInitStruct->APB2CLKDivider) << 3U));
 8003074:	4a14      	ldr	r2, [pc, #80]	; (80030c8 <HAL_RCC_ClockConfig+0x12c>)
 8003076:	6921      	ldr	r1, [r4, #16]
 8003078:	6893      	ldr	r3, [r2, #8]
 800307a:	f423 4360 	bic.w	r3, r3, #57344	; 0xe000
 800307e:	ea43 03c1 	orr.w	r3, r3, r1, lsl #3
 8003082:	6093      	str	r3, [r2, #8]
  SystemCoreClock = HAL_RCC_GetSysClockFreq() >> AHBPrescTable[(RCC->CFGR & RCC_CFGR_HPRE)>> RCC_CFGR_HPRE_Pos];
 8003084:	f7ff ff56 	bl	8002f34 <HAL_RCC_GetSysClockFreq>
 8003088:	4a0f      	ldr	r2, [pc, #60]	; (80030c8 <HAL_RCC_ClockConfig+0x12c>)
 800308a:	4c10      	ldr	r4, [pc, #64]	; (80030cc <HAL_RCC_ClockConfig+0x130>)
 800308c:	6892      	ldr	r2, [r2, #8]
 800308e:	4910      	ldr	r1, [pc, #64]	; (80030d0 <HAL_RCC_ClockConfig+0x134>)
 8003090:	f3c2 1203 	ubfx	r2, r2, #4, #4
 8003094:	4603      	mov	r3, r0
 8003096:	5ca2      	ldrb	r2, [r4, r2]
  HAL_InitTick (uwTickPrio);
 8003098:	480e      	ldr	r0, [pc, #56]	; (80030d4 <HAL_RCC_ClockConfig+0x138>)
  SystemCoreClock = HAL_RCC_GetSysClockFreq() >> AHBPrescTable[(RCC->CFGR & RCC_CFGR_HPRE)>> RCC_CFGR_HPRE_Pos];
 800309a:	40d3      	lsrs	r3, r2
  HAL_InitTick (uwTickPrio);
 800309c:	6800      	ldr	r0, [r0, #0]
  SystemCoreClock = HAL_RCC_GetSysClockFreq() >> AHBPrescTable[(RCC->CFGR & RCC_CFGR_HPRE)>> RCC_CFGR_HPRE_Pos];
 800309e:	600b      	str	r3, [r1, #0]
  HAL_InitTick (uwTickPrio);
 80030a0:	f7fe feba 	bl	8001e18 <HAL_InitTick>
  return HAL_OK;
 80030a4:	2000      	movs	r0, #0
}
 80030a6:	e8bd 81f0 	ldmia.w	sp!, {r4, r5, r6, r7, r8, pc}
      if(__HAL_RCC_GET_FLAG(RCC_FLAG_PLLRDY) == RESET)
 80030aa:	0198      	lsls	r0, r3, #6
 80030ac:	d4b1      	bmi.n	8003012 <HAL_RCC_ClockConfig+0x76>
 80030ae:	e789      	b.n	8002fc4 <HAL_RCC_ClockConfig+0x28>
    return HAL_ERROR;
 80030b0:	2001      	movs	r0, #1
}
 80030b2:	4770      	bx	lr
      if(__HAL_RCC_GET_FLAG(RCC_FLAG_HSERDY) == RESET)
 80030b4:	4b04      	ldr	r3, [pc, #16]	; (80030c8 <HAL_RCC_ClockConfig+0x12c>)
 80030b6:	681b      	ldr	r3, [r3, #0]
 80030b8:	039e      	lsls	r6, r3, #14
 80030ba:	d4aa      	bmi.n	8003012 <HAL_RCC_ClockConfig+0x76>
 80030bc:	e782      	b.n	8002fc4 <HAL_RCC_ClockConfig+0x28>
        return HAL_TIMEOUT;
 80030be:	2003      	movs	r0, #3
 80030c0:	e781      	b.n	8002fc6 <HAL_RCC_ClockConfig+0x2a>
 80030c2:	bf00      	nop
 80030c4:	40023c00 	.word	0x40023c00
 80030c8:	40023800 	.word	0x40023800
 80030cc:	08003644 	.word	0x08003644
 80030d0:	20000030 	.word	0x20000030
 80030d4:	20000038 	.word	0x20000038

080030d8 <HAL_RCC_GetPCLK1Freq>:
  * @retval PCLK1 frequency
  */
uint32_t HAL_RCC_GetPCLK1Freq(void)
{
  /* Get HCLK source and Compute PCLK1 frequency ---------------------------*/
  return (HAL_RCC_GetHCLKFreq() >> APBPrescTable[(RCC->CFGR & RCC_CFGR_PPRE1)>> RCC_CFGR_PPRE1_Pos]);
 80030d8:	4b04      	ldr	r3, [pc, #16]	; (80030ec <HAL_RCC_GetPCLK1Freq+0x14>)
  return SystemCoreClock;
 80030da:	4905      	ldr	r1, [pc, #20]	; (80030f0 <HAL_RCC_GetPCLK1Freq+0x18>)
  return (HAL_RCC_GetHCLKFreq() >> APBPrescTable[(RCC->CFGR & RCC_CFGR_PPRE1)>> RCC_CFGR_PPRE1_Pos]);
 80030dc:	689b      	ldr	r3, [r3, #8]
 80030de:	4a05      	ldr	r2, [pc, #20]	; (80030f4 <HAL_RCC_GetPCLK1Freq+0x1c>)
 80030e0:	6808      	ldr	r0, [r1, #0]
 80030e2:	f3c3 2382 	ubfx	r3, r3, #10, #3
 80030e6:	5cd3      	ldrb	r3, [r2, r3]
}
 80030e8:	40d8      	lsrs	r0, r3
 80030ea:	4770      	bx	lr
 80030ec:	40023800 	.word	0x40023800
 80030f0:	20000030 	.word	0x20000030
 80030f4:	08003654 	.word	0x08003654

080030f8 <HAL_TIM_Base_Init>:
  * @retval HAL status
  */
HAL_StatusTypeDef HAL_TIM_Base_Init(TIM_HandleTypeDef *htim)
{
  /* Check the TIM handle allocation */
  if (htim == NULL)
 80030f8:	2800      	cmp	r0, #0
 80030fa:	d076      	beq.n	80031ea <HAL_TIM_Base_Init+0xf2>
{
 80030fc:	b510      	push	{r4, lr}
  assert_param(IS_TIM_INSTANCE(htim->Instance));
  assert_param(IS_TIM_COUNTER_MODE(htim->Init.CounterMode));
  assert_param(IS_TIM_CLOCKDIVISION_DIV(htim->Init.ClockDivision));
  assert_param(IS_TIM_AUTORELOAD_PRELOAD(htim->Init.AutoReloadPreload));

  if (htim->State == HAL_TIM_STATE_RESET)
 80030fe:	f890 303d 	ldrb.w	r3, [r0, #61]	; 0x3d
 8003102:	4604      	mov	r4, r0
 8003104:	f003 02ff 	and.w	r2, r3, #255	; 0xff
 8003108:	2b00      	cmp	r3, #0
 800310a:	d055      	beq.n	80031b8 <HAL_TIM_Base_Init+0xc0>

  /* Set the TIM state */
  htim->State = HAL_TIM_STATE_BUSY;

  /* Set the Time Base configuration */
  TIM_Base_SetConfig(htim->Instance, &htim->Init);
 800310c:	6822      	ldr	r2, [r4, #0]
{
  uint32_t tmpcr1;
  tmpcr1 = TIMx->CR1;

  /* Set TIM Time Base Unit parameters ---------------------------------------*/
  if (IS_TIM_COUNTER_MODE_SELECT_INSTANCE(TIMx))
 800310e:	4938      	ldr	r1, [pc, #224]	; (80031f0 <HAL_TIM_Base_Init+0xf8>)
  htim->State = HAL_TIM_STATE_BUSY;
 8003110:	2302      	movs	r3, #2
 8003112:	f884 303d 	strb.w	r3, [r4, #61]	; 0x3d
  if (IS_TIM_COUNTER_MODE_SELECT_INSTANCE(TIMx))
 8003116:	428a      	cmp	r2, r1
  tmpcr1 = TIMx->CR1;
 8003118:	6813      	ldr	r3, [r2, #0]
  if (IS_TIM_COUNTER_MODE_SELECT_INSTANCE(TIMx))
 800311a:	d052      	beq.n	80031c2 <HAL_TIM_Base_Init+0xca>
 800311c:	f1b2 4f80 	cmp.w	r2, #1073741824	; 0x40000000
 8003120:	d021      	beq.n	8003166 <HAL_TIM_Base_Init+0x6e>
 8003122:	f5a1 417c 	sub.w	r1, r1, #64512	; 0xfc00
 8003126:	428a      	cmp	r2, r1
 8003128:	d01d      	beq.n	8003166 <HAL_TIM_Base_Init+0x6e>
 800312a:	f501 6180 	add.w	r1, r1, #1024	; 0x400
 800312e:	428a      	cmp	r2, r1
 8003130:	d019      	beq.n	8003166 <HAL_TIM_Base_Init+0x6e>
 8003132:	f501 6180 	add.w	r1, r1, #1024	; 0x400
 8003136:	428a      	cmp	r2, r1
 8003138:	d015      	beq.n	8003166 <HAL_TIM_Base_Init+0x6e>
    /* Select the Counter Mode */
    tmpcr1 &= ~(TIM_CR1_DIR | TIM_CR1_CMS);
    tmpcr1 |= Structure->CounterMode;
  }

  if (IS_TIM_CLOCK_DIVISION_INSTANCE(TIMx))
 800313a:	f501 319a 	add.w	r1, r1, #78848	; 0x13400
 800313e:	428a      	cmp	r2, r1
 8003140:	d015      	beq.n	800316e <HAL_TIM_Base_Init+0x76>
 8003142:	f501 6180 	add.w	r1, r1, #1024	; 0x400
 8003146:	428a      	cmp	r2, r1
 8003148:	d011      	beq.n	800316e <HAL_TIM_Base_Init+0x76>
 800314a:	f501 6180 	add.w	r1, r1, #1024	; 0x400
 800314e:	428a      	cmp	r2, r1
 8003150:	d00d      	beq.n	800316e <HAL_TIM_Base_Init+0x76>
    tmpcr1 &= ~TIM_CR1_CKD;
    tmpcr1 |= (uint32_t)Structure->ClockDivision;
  }

  /* Set the auto-reload preload */
  MODIFY_REG(tmpcr1, TIM_CR1_ARPE, Structure->AutoReloadPreload);
 8003152:	69a0      	ldr	r0, [r4, #24]

  TIMx->CR1 = tmpcr1;

  /* Set the Autoreload value */
  TIMx->ARR = (uint32_t)Structure->Period ;
 8003154:	68e1      	ldr	r1, [r4, #12]
  MODIFY_REG(tmpcr1, TIM_CR1_ARPE, Structure->AutoReloadPreload);
 8003156:	f023 0380 	bic.w	r3, r3, #128	; 0x80
 800315a:	4303      	orrs	r3, r0
  TIMx->CR1 = tmpcr1;
 800315c:	6013      	str	r3, [r2, #0]

  /* Set the Prescaler value */
  TIMx->PSC = Structure->Prescaler;
 800315e:	6863      	ldr	r3, [r4, #4]
  TIMx->ARR = (uint32_t)Structure->Period ;
 8003160:	62d1      	str	r1, [r2, #44]	; 0x2c
  TIMx->PSC = Structure->Prescaler;
 8003162:	6293      	str	r3, [r2, #40]	; 0x28
 8003164:	e010      	b.n	8003188 <HAL_TIM_Base_Init+0x90>
    tmpcr1 |= Structure->CounterMode;
 8003166:	68a1      	ldr	r1, [r4, #8]
    tmpcr1 &= ~(TIM_CR1_DIR | TIM_CR1_CMS);
 8003168:	f023 0370 	bic.w	r3, r3, #112	; 0x70
    tmpcr1 |= Structure->CounterMode;
 800316c:	430b      	orrs	r3, r1
    tmpcr1 |= (uint32_t)Structure->ClockDivision;
 800316e:	6920      	ldr	r0, [r4, #16]
  MODIFY_REG(tmpcr1, TIM_CR1_ARPE, Structure->AutoReloadPreload);
 8003170:	69a1      	ldr	r1, [r4, #24]
    tmpcr1 &= ~TIM_CR1_CKD;
 8003172:	f423 7340 	bic.w	r3, r3, #768	; 0x300
    tmpcr1 |= (uint32_t)Structure->ClockDivision;
 8003176:	4303      	orrs	r3, r0
  MODIFY_REG(tmpcr1, TIM_CR1_ARPE, Structure->AutoReloadPreload);
 8003178:	f023 0380 	bic.w	r3, r3, #128	; 0x80
  TIMx->ARR = (uint32_t)Structure->Period ;
 800317c:	68e0      	ldr	r0, [r4, #12]
  MODIFY_REG(tmpcr1, TIM_CR1_ARPE, Structure->AutoReloadPreload);
 800317e:	430b      	orrs	r3, r1
  TIMx->PSC = Structure->Prescaler;
 8003180:	6861      	ldr	r1, [r4, #4]
  TIMx->CR1 = tmpcr1;
 8003182:	6013      	str	r3, [r2, #0]
  TIMx->ARR = (uint32_t)Structure->Period ;
 8003184:	62d0      	str	r0, [r2, #44]	; 0x2c
  TIMx->PSC = Structure->Prescaler;
 8003186:	6291      	str	r1, [r2, #40]	; 0x28
    TIMx->RCR = Structure->RepetitionCounter;
  }

  /* Generate an update event to reload the Prescaler
     and the repetition counter (only for advanced timer) value immediately */
  TIMx->EGR = TIM_EGR_UG;
 8003188:	2301      	movs	r3, #1
 800318a:	6153      	str	r3, [r2, #20]
  htim->DMABurstState = HAL_DMA_BURST_STATE_READY;
 800318c:	f884 3046 	strb.w	r3, [r4, #70]	; 0x46
  TIM_CHANNEL_STATE_SET_ALL(htim, HAL_TIM_CHANNEL_STATE_READY);
 8003190:	f884 303e 	strb.w	r3, [r4, #62]	; 0x3e
 8003194:	f884 303f 	strb.w	r3, [r4, #63]	; 0x3f
 8003198:	f884 3040 	strb.w	r3, [r4, #64]	; 0x40
 800319c:	f884 3041 	strb.w	r3, [r4, #65]	; 0x41
  TIM_CHANNEL_N_STATE_SET_ALL(htim, HAL_TIM_CHANNEL_STATE_READY);
 80031a0:	f884 3042 	strb.w	r3, [r4, #66]	; 0x42
 80031a4:	f884 3043 	strb.w	r3, [r4, #67]	; 0x43
 80031a8:	f884 3044 	strb.w	r3, [r4, #68]	; 0x44
 80031ac:	f884 3045 	strb.w	r3, [r4, #69]	; 0x45
  htim->State = HAL_TIM_STATE_READY;
 80031b0:	f884 303d 	strb.w	r3, [r4, #61]	; 0x3d
  return HAL_OK;
 80031b4:	2000      	movs	r0, #0
}
 80031b6:	bd10      	pop	{r4, pc}
    htim->Lock = HAL_UNLOCKED;
 80031b8:	f880 203c 	strb.w	r2, [r0, #60]	; 0x3c
    HAL_TIM_Base_MspInit(htim);
 80031bc:	f7fe fd28 	bl	8001c10 <HAL_TIM_Base_MspInit>
 80031c0:	e7a4      	b.n	800310c <HAL_TIM_Base_Init+0x14>
    tmpcr1 |= Structure->CounterMode;
 80031c2:	68a0      	ldr	r0, [r4, #8]
    tmpcr1 |= (uint32_t)Structure->ClockDivision;
 80031c4:	6921      	ldr	r1, [r4, #16]
    tmpcr1 &= ~(TIM_CR1_DIR | TIM_CR1_CMS);
 80031c6:	f023 0370 	bic.w	r3, r3, #112	; 0x70
    tmpcr1 |= Structure->CounterMode;
 80031ca:	4303      	orrs	r3, r0
    tmpcr1 &= ~TIM_CR1_CKD;
 80031cc:	f423 7340 	bic.w	r3, r3, #768	; 0x300
    tmpcr1 |= (uint32_t)Structure->ClockDivision;
 80031d0:	430b      	orrs	r3, r1
  MODIFY_REG(tmpcr1, TIM_CR1_ARPE, Structure->AutoReloadPreload);
 80031d2:	69a1      	ldr	r1, [r4, #24]
 80031d4:	f023 0380 	bic.w	r3, r3, #128	; 0x80
 80031d8:	430b      	orrs	r3, r1
  TIMx->CR1 = tmpcr1;
 80031da:	6013      	str	r3, [r2, #0]
  TIMx->ARR = (uint32_t)Structure->Period ;
 80031dc:	68e3      	ldr	r3, [r4, #12]
 80031de:	62d3      	str	r3, [r2, #44]	; 0x2c
  TIMx->PSC = Structure->Prescaler;
 80031e0:	6863      	ldr	r3, [r4, #4]
 80031e2:	6293      	str	r3, [r2, #40]	; 0x28
    TIMx->RCR = Structure->RepetitionCounter;
 80031e4:	6963      	ldr	r3, [r4, #20]
 80031e6:	6313      	str	r3, [r2, #48]	; 0x30
 80031e8:	e7ce      	b.n	8003188 <HAL_TIM_Base_Init+0x90>
    return HAL_ERROR;
 80031ea:	2001      	movs	r0, #1
}
 80031ec:	4770      	bx	lr
 80031ee:	bf00      	nop
 80031f0:	40010000 	.word	0x40010000

080031f4 <HAL_TIM_Base_Start_IT>:
  if (htim->State != HAL_TIM_STATE_READY)
 80031f4:	f890 303d 	ldrb.w	r3, [r0, #61]	; 0x3d
 80031f8:	2b01      	cmp	r3, #1
 80031fa:	d127      	bne.n	800324c <HAL_TIM_Base_Start_IT+0x58>
  __HAL_TIM_ENABLE_IT(htim, TIM_IT_UPDATE);
 80031fc:	6803      	ldr	r3, [r0, #0]
  if (IS_TIM_SLAVE_INSTANCE(htim->Instance))
 80031fe:	4915      	ldr	r1, [pc, #84]	; (8003254 <HAL_TIM_Base_Start_IT+0x60>)
  htim->State = HAL_TIM_STATE_BUSY;
 8003200:	2202      	movs	r2, #2
 8003202:	f880 203d 	strb.w	r2, [r0, #61]	; 0x3d
  __HAL_TIM_ENABLE_IT(htim, TIM_IT_UPDATE);
 8003206:	68da      	ldr	r2, [r3, #12]
  if (IS_TIM_SLAVE_INSTANCE(htim->Instance))
 8003208:	428b      	cmp	r3, r1
  __HAL_TIM_ENABLE_IT(htim, TIM_IT_UPDATE);
 800320a:	f042 0201 	orr.w	r2, r2, #1
 800320e:	60da      	str	r2, [r3, #12]
  if (IS_TIM_SLAVE_INSTANCE(htim->Instance))
 8003210:	d011      	beq.n	8003236 <HAL_TIM_Base_Start_IT+0x42>
 8003212:	f1b3 4f80 	cmp.w	r3, #1073741824	; 0x40000000
 8003216:	d00e      	beq.n	8003236 <HAL_TIM_Base_Start_IT+0x42>
 8003218:	4a0f      	ldr	r2, [pc, #60]	; (8003258 <HAL_TIM_Base_Start_IT+0x64>)
 800321a:	4293      	cmp	r3, r2
 800321c:	d00b      	beq.n	8003236 <HAL_TIM_Base_Start_IT+0x42>
 800321e:	f502 6280 	add.w	r2, r2, #1024	; 0x400
 8003222:	4293      	cmp	r3, r2
 8003224:	d007      	beq.n	8003236 <HAL_TIM_Base_Start_IT+0x42>
 8003226:	f502 6280 	add.w	r2, r2, #1024	; 0x400
 800322a:	4293      	cmp	r3, r2
 800322c:	d003      	beq.n	8003236 <HAL_TIM_Base_Start_IT+0x42>
 800322e:	f502 329a 	add.w	r2, r2, #78848	; 0x13400
 8003232:	4293      	cmp	r3, r2
 8003234:	d104      	bne.n	8003240 <HAL_TIM_Base_Start_IT+0x4c>
    tmpsmcr = htim->Instance->SMCR & TIM_SMCR_SMS;
 8003236:	689a      	ldr	r2, [r3, #8]
 8003238:	f002 0207 	and.w	r2, r2, #7
    if (!IS_TIM_SLAVEMODE_TRIGGER_ENABLED(tmpsmcr))
 800323c:	2a06      	cmp	r2, #6
 800323e:	d007      	beq.n	8003250 <HAL_TIM_Base_Start_IT+0x5c>
    __HAL_TIM_ENABLE(htim);
 8003240:	681a      	ldr	r2, [r3, #0]
 8003242:	f042 0201 	orr.w	r2, r2, #1
  return HAL_OK;
 8003246:	2000      	movs	r0, #0
    __HAL_TIM_ENABLE(htim);
 8003248:	601a      	str	r2, [r3, #0]
 800324a:	4770      	bx	lr
    return HAL_ERROR;
 800324c:	2001      	movs	r0, #1
 800324e:	4770      	bx	lr
  return HAL_OK;
 8003250:	2000      	movs	r0, #0
}
 8003252:	4770      	bx	lr
 8003254:	40010000 	.word	0x40010000
 8003258:	40000400 	.word	0x40000400

0800325c <HAL_TIM_Base_Stop_IT>:
  __HAL_TIM_DISABLE_IT(htim, TIM_IT_UPDATE);
 800325c:	6803      	ldr	r3, [r0, #0]
 800325e:	68da      	ldr	r2, [r3, #12]
 8003260:	f022 0201 	bic.w	r2, r2, #1
 8003264:	60da      	str	r2, [r3, #12]
  __HAL_TIM_DISABLE(htim);
 8003266:	6a1a      	ldr	r2, [r3, #32]
 8003268:	f241 1111 	movw	r1, #4369	; 0x1111
 800326c:	420a      	tst	r2, r1
 800326e:	d108      	bne.n	8003282 <HAL_TIM_Base_Stop_IT+0x26>
 8003270:	6a19      	ldr	r1, [r3, #32]
 8003272:	f240 4244 	movw	r2, #1092	; 0x444
 8003276:	4211      	tst	r1, r2
 8003278:	d103      	bne.n	8003282 <HAL_TIM_Base_Stop_IT+0x26>
 800327a:	681a      	ldr	r2, [r3, #0]
 800327c:	f022 0201 	bic.w	r2, r2, #1
 8003280:	601a      	str	r2, [r3, #0]
  htim->State = HAL_TIM_STATE_READY;
 8003282:	2301      	movs	r3, #1
 8003284:	f880 303d 	strb.w	r3, [r0, #61]	; 0x3d
}
 8003288:	2000      	movs	r0, #0
 800328a:	4770      	bx	lr

0800328c <HAL_TIM_ConfigClockSource>:
  __HAL_LOCK(htim);
 800328c:	f890 303c 	ldrb.w	r3, [r0, #60]	; 0x3c
 8003290:	2b01      	cmp	r3, #1
 8003292:	d075      	beq.n	8003380 <HAL_TIM_ConfigClockSource+0xf4>
 8003294:	4602      	mov	r2, r0
{
 8003296:	b430      	push	{r4, r5}
  htim->State = HAL_TIM_STATE_BUSY;
 8003298:	2302      	movs	r3, #2
  tmpsmcr = htim->Instance->SMCR;
 800329a:	6804      	ldr	r4, [r0, #0]
  htim->State = HAL_TIM_STATE_BUSY;
 800329c:	f882 303d 	strb.w	r3, [r2, #61]	; 0x3d
  __HAL_LOCK(htim);
 80032a0:	2001      	movs	r0, #1
 80032a2:	f882 003c 	strb.w	r0, [r2, #60]	; 0x3c
  tmpsmcr = htim->Instance->SMCR;
 80032a6:	68a3      	ldr	r3, [r4, #8]
  tmpsmcr &= ~(TIM_SMCR_ETF | TIM_SMCR_ETPS | TIM_SMCR_ECE | TIM_SMCR_ETP);
 80032a8:	f423 437f 	bic.w	r3, r3, #65280	; 0xff00
 80032ac:	f023 0377 	bic.w	r3, r3, #119	; 0x77
  htim->Instance->SMCR = tmpsmcr;
 80032b0:	60a3      	str	r3, [r4, #8]
  switch (sClockSourceConfig->ClockSource)
 80032b2:	680b      	ldr	r3, [r1, #0]
 80032b4:	2b60      	cmp	r3, #96	; 0x60
 80032b6:	d065      	beq.n	8003384 <HAL_TIM_ConfigClockSource+0xf8>
 80032b8:	d824      	bhi.n	8003304 <HAL_TIM_ConfigClockSource+0x78>
 80032ba:	2b40      	cmp	r3, #64	; 0x40
 80032bc:	d07c      	beq.n	80033b8 <HAL_TIM_ConfigClockSource+0x12c>
 80032be:	d94b      	bls.n	8003358 <HAL_TIM_ConfigClockSource+0xcc>
 80032c0:	2b50      	cmp	r3, #80	; 0x50
 80032c2:	d117      	bne.n	80032f4 <HAL_TIM_ConfigClockSource+0x68>
      TIM_TI1_ConfigInputStage(htim->Instance,
 80032c4:	6848      	ldr	r0, [r1, #4]
 80032c6:	68cd      	ldr	r5, [r1, #12]
{
  uint32_t tmpccmr1;
  uint32_t tmpccer;

  /* Disable the Channel 1: Reset the CC1E Bit */
  tmpccer = TIMx->CCER;
 80032c8:	6a21      	ldr	r1, [r4, #32]
  TIMx->CCER &= ~TIM_CCER_CC1E;
 80032ca:	6a23      	ldr	r3, [r4, #32]
 80032cc:	f023 0301 	bic.w	r3, r3, #1
 80032d0:	6223      	str	r3, [r4, #32]
  tmpccmr1 = TIMx->CCMR1;
 80032d2:	69a3      	ldr	r3, [r4, #24]
  /* Set the filter */
  tmpccmr1 &= ~TIM_CCMR1_IC1F;
  tmpccmr1 |= (TIM_ICFilter << 4U);

  /* Select the Polarity and set the CC1E Bit */
  tmpccer &= ~(TIM_CCER_CC1P | TIM_CCER_CC1NP);
 80032d4:	f021 010a 	bic.w	r1, r1, #10
  tmpccmr1 &= ~TIM_CCMR1_IC1F;
 80032d8:	f023 03f0 	bic.w	r3, r3, #240	; 0xf0
  tmpccer |= TIM_ICPolarity;
 80032dc:	4301      	orrs	r1, r0
  tmpccmr1 |= (TIM_ICFilter << 4U);
 80032de:	ea43 1305 	orr.w	r3, r3, r5, lsl #4

  /* Write to TIMx CCMR1 and CCER registers */
  TIMx->CCMR1 = tmpccmr1;
 80032e2:	61a3      	str	r3, [r4, #24]
  TIMx->CCER = tmpccer;
 80032e4:	6221      	str	r1, [r4, #32]
static void TIM_ITRx_SetConfig(TIM_TypeDef *TIMx, uint32_t InputTriggerSource)
{
  uint32_t tmpsmcr;

  /* Get the TIMx SMCR register value */
  tmpsmcr = TIMx->SMCR;
 80032e6:	68a3      	ldr	r3, [r4, #8]
  /* Reset the TS Bits */
  tmpsmcr &= ~TIM_SMCR_TS;
 80032e8:	f023 0370 	bic.w	r3, r3, #112	; 0x70
  /* Set the Input Trigger source and the slave mode*/
  tmpsmcr |= (InputTriggerSource | TIM_SLAVEMODE_EXTERNAL1);
 80032ec:	f043 0357 	orr.w	r3, r3, #87	; 0x57
  HAL_StatusTypeDef status = HAL_OK;
 80032f0:	2000      	movs	r0, #0
  /* Write to TIMx SMCR */
  TIMx->SMCR = tmpsmcr;
 80032f2:	60a3      	str	r3, [r4, #8]
  htim->State = HAL_TIM_STATE_READY;
 80032f4:	2101      	movs	r1, #1
  __HAL_UNLOCK(htim);
 80032f6:	2300      	movs	r3, #0
  htim->State = HAL_TIM_STATE_READY;
 80032f8:	f882 103d 	strb.w	r1, [r2, #61]	; 0x3d
  __HAL_UNLOCK(htim);
 80032fc:	f882 303c 	strb.w	r3, [r2, #60]	; 0x3c
}
 8003300:	bc30      	pop	{r4, r5}
 8003302:	4770      	bx	lr
  switch (sClockSourceConfig->ClockSource)
 8003304:	f5b3 5f80 	cmp.w	r3, #4096	; 0x1000
 8003308:	d038      	beq.n	800337c <HAL_TIM_ConfigClockSource+0xf0>
 800330a:	f5b3 5f00 	cmp.w	r3, #8192	; 0x2000
 800330e:	d110      	bne.n	8003332 <HAL_TIM_ConfigClockSource+0xa6>

  /* Reset the ETR Bits */
  tmpsmcr &= ~(TIM_SMCR_ETF | TIM_SMCR_ETPS | TIM_SMCR_ECE | TIM_SMCR_ETP);

  /* Set the Prescaler, the Filter value and the Polarity */
  tmpsmcr |= (uint32_t)(TIM_ExtTRGPrescaler | (TIM_ExtTRGPolarity | (ExtTRGFilter << 8U)));
 8003310:	e9d1 5301 	ldrd	r5, r3, [r1, #4]
  tmpsmcr = TIMx->SMCR;
 8003314:	68a0      	ldr	r0, [r4, #8]
  tmpsmcr |= (uint32_t)(TIM_ExtTRGPrescaler | (TIM_ExtTRGPolarity | (ExtTRGFilter << 8U)));
 8003316:	432b      	orrs	r3, r5
 8003318:	68cd      	ldr	r5, [r1, #12]
  tmpsmcr &= ~(TIM_SMCR_ETF | TIM_SMCR_ETPS | TIM_SMCR_ECE | TIM_SMCR_ETP);
 800331a:	f420 417f 	bic.w	r1, r0, #65280	; 0xff00
  tmpsmcr |= (uint32_t)(TIM_ExtTRGPrescaler | (TIM_ExtTRGPolarity | (ExtTRGFilter << 8U)));
 800331e:	ea43 2305 	orr.w	r3, r3, r5, lsl #8
 8003322:	430b      	orrs	r3, r1

  /* Write to TIMx SMCR */
  TIMx->SMCR = tmpsmcr;
 8003324:	60a3      	str	r3, [r4, #8]
      htim->Instance->SMCR |= TIM_SMCR_ECE;
 8003326:	68a3      	ldr	r3, [r4, #8]
 8003328:	f443 4380 	orr.w	r3, r3, #16384	; 0x4000
  HAL_StatusTypeDef status = HAL_OK;
 800332c:	2000      	movs	r0, #0
      htim->Instance->SMCR |= TIM_SMCR_ECE;
 800332e:	60a3      	str	r3, [r4, #8]
      break;
 8003330:	e7e0      	b.n	80032f4 <HAL_TIM_ConfigClockSource+0x68>
  switch (sClockSourceConfig->ClockSource)
 8003332:	2b70      	cmp	r3, #112	; 0x70
 8003334:	d1de      	bne.n	80032f4 <HAL_TIM_ConfigClockSource+0x68>
  tmpsmcr |= (uint32_t)(TIM_ExtTRGPrescaler | (TIM_ExtTRGPolarity | (ExtTRGFilter << 8U)));
 8003336:	e9d1 5301 	ldrd	r5, r3, [r1, #4]
  tmpsmcr = TIMx->SMCR;
 800333a:	68a0      	ldr	r0, [r4, #8]
  tmpsmcr |= (uint32_t)(TIM_ExtTRGPrescaler | (TIM_ExtTRGPolarity | (ExtTRGFilter << 8U)));
 800333c:	432b      	orrs	r3, r5
 800333e:	68cd      	ldr	r5, [r1, #12]
  tmpsmcr &= ~(TIM_SMCR_ETF | TIM_SMCR_ETPS | TIM_SMCR_ECE | TIM_SMCR_ETP);
 8003340:	f420 417f 	bic.w	r1, r0, #65280	; 0xff00
  tmpsmcr |= (uint32_t)(TIM_ExtTRGPrescaler | (TIM_ExtTRGPolarity | (ExtTRGFilter << 8U)));
 8003344:	ea43 2305 	orr.w	r3, r3, r5, lsl #8
 8003348:	430b      	orrs	r3, r1
  TIMx->SMCR = tmpsmcr;
 800334a:	60a3      	str	r3, [r4, #8]
      tmpsmcr = htim->Instance->SMCR;
 800334c:	68a3      	ldr	r3, [r4, #8]
      tmpsmcr |= (TIM_SLAVEMODE_EXTERNAL1 | TIM_CLOCKSOURCE_ETRMODE1);
 800334e:	f043 0377 	orr.w	r3, r3, #119	; 0x77
  HAL_StatusTypeDef status = HAL_OK;
 8003352:	2000      	movs	r0, #0
      htim->Instance->SMCR = tmpsmcr;
 8003354:	60a3      	str	r3, [r4, #8]
      break;
 8003356:	e7cd      	b.n	80032f4 <HAL_TIM_ConfigClockSource+0x68>
  switch (sClockSourceConfig->ClockSource)
 8003358:	2b20      	cmp	r3, #32
 800335a:	d002      	beq.n	8003362 <HAL_TIM_ConfigClockSource+0xd6>
 800335c:	d90a      	bls.n	8003374 <HAL_TIM_ConfigClockSource+0xe8>
 800335e:	2b30      	cmp	r3, #48	; 0x30
 8003360:	d1c8      	bne.n	80032f4 <HAL_TIM_ConfigClockSource+0x68>
  tmpsmcr = TIMx->SMCR;
 8003362:	68a1      	ldr	r1, [r4, #8]
  tmpsmcr &= ~TIM_SMCR_TS;
 8003364:	f021 0170 	bic.w	r1, r1, #112	; 0x70
  tmpsmcr |= (InputTriggerSource | TIM_SLAVEMODE_EXTERNAL1);
 8003368:	430b      	orrs	r3, r1
 800336a:	f043 0307 	orr.w	r3, r3, #7
  HAL_StatusTypeDef status = HAL_OK;
 800336e:	2000      	movs	r0, #0
  TIMx->SMCR = tmpsmcr;
 8003370:	60a3      	str	r3, [r4, #8]
}
 8003372:	e7bf      	b.n	80032f4 <HAL_TIM_ConfigClockSource+0x68>
  switch (sClockSourceConfig->ClockSource)
 8003374:	f033 0110 	bics.w	r1, r3, #16
 8003378:	d1bc      	bne.n	80032f4 <HAL_TIM_ConfigClockSource+0x68>
 800337a:	e7f2      	b.n	8003362 <HAL_TIM_ConfigClockSource+0xd6>
  HAL_StatusTypeDef status = HAL_OK;
 800337c:	2000      	movs	r0, #0
 800337e:	e7b9      	b.n	80032f4 <HAL_TIM_ConfigClockSource+0x68>
  __HAL_LOCK(htim);
 8003380:	2002      	movs	r0, #2
}
 8003382:	4770      	bx	lr
  TIMx->CCER &= ~TIM_CCER_CC2E;
 8003384:	6a20      	ldr	r0, [r4, #32]
      TIM_TI2_ConfigInputStage(htim->Instance,
 8003386:	68cb      	ldr	r3, [r1, #12]
 8003388:	684d      	ldr	r5, [r1, #4]
  TIMx->CCER &= ~TIM_CCER_CC2E;
 800338a:	f020 0010 	bic.w	r0, r0, #16
 800338e:	6220      	str	r0, [r4, #32]
  tmpccmr1 = TIMx->CCMR1;
 8003390:	69a1      	ldr	r1, [r4, #24]
  tmpccmr1 &= ~TIM_CCMR1_IC2F;
 8003392:	f421 4170 	bic.w	r1, r1, #61440	; 0xf000
  tmpccmr1 |= (TIM_ICFilter << 12U);
 8003396:	ea41 3103 	orr.w	r1, r1, r3, lsl #12
  tmpccer = TIMx->CCER;
 800339a:	6a23      	ldr	r3, [r4, #32]
  TIMx->CCMR1 = tmpccmr1 ;
 800339c:	61a1      	str	r1, [r4, #24]
  tmpccer &= ~(TIM_CCER_CC2P | TIM_CCER_CC2NP);
 800339e:	f023 03a0 	bic.w	r3, r3, #160	; 0xa0
  tmpccer |= (TIM_ICPolarity << 4U);
 80033a2:	ea43 1305 	orr.w	r3, r3, r5, lsl #4
  TIMx->CCER = tmpccer;
 80033a6:	6223      	str	r3, [r4, #32]
  tmpsmcr = TIMx->SMCR;
 80033a8:	68a3      	ldr	r3, [r4, #8]
  tmpsmcr &= ~TIM_SMCR_TS;
 80033aa:	f023 0370 	bic.w	r3, r3, #112	; 0x70
  tmpsmcr |= (InputTriggerSource | TIM_SLAVEMODE_EXTERNAL1);
 80033ae:	f043 0367 	orr.w	r3, r3, #103	; 0x67
  HAL_StatusTypeDef status = HAL_OK;
 80033b2:	2000      	movs	r0, #0
  TIMx->SMCR = tmpsmcr;
 80033b4:	60a3      	str	r3, [r4, #8]
}
 80033b6:	e79d      	b.n	80032f4 <HAL_TIM_ConfigClockSource+0x68>
      TIM_TI1_ConfigInputStage(htim->Instance,
 80033b8:	6848      	ldr	r0, [r1, #4]
 80033ba:	68cd      	ldr	r5, [r1, #12]
  tmpccer = TIMx->CCER;
 80033bc:	6a21      	ldr	r1, [r4, #32]
  TIMx->CCER &= ~TIM_CCER_CC1E;
 80033be:	6a23      	ldr	r3, [r4, #32]
 80033c0:	f023 0301 	bic.w	r3, r3, #1
 80033c4:	6223      	str	r3, [r4, #32]
  tmpccmr1 = TIMx->CCMR1;
 80033c6:	69a3      	ldr	r3, [r4, #24]
  tmpccer &= ~(TIM_CCER_CC1P | TIM_CCER_CC1NP);
 80033c8:	f021 010a 	bic.w	r1, r1, #10
  tmpccmr1 &= ~TIM_CCMR1_IC1F;
 80033cc:	f023 03f0 	bic.w	r3, r3, #240	; 0xf0
  tmpccer |= TIM_ICPolarity;
 80033d0:	4301      	orrs	r1, r0
  tmpccmr1 |= (TIM_ICFilter << 4U);
 80033d2:	ea43 1305 	orr.w	r3, r3, r5, lsl #4
  TIMx->CCMR1 = tmpccmr1;
 80033d6:	61a3      	str	r3, [r4, #24]
  TIMx->CCER = tmpccer;
 80033d8:	6221      	str	r1, [r4, #32]
  tmpsmcr = TIMx->SMCR;
 80033da:	68a3      	ldr	r3, [r4, #8]
  tmpsmcr &= ~TIM_SMCR_TS;
 80033dc:	f023 0370 	bic.w	r3, r3, #112	; 0x70
  tmpsmcr |= (InputTriggerSource | TIM_SLAVEMODE_EXTERNAL1);
 80033e0:	f043 0347 	orr.w	r3, r3, #71	; 0x47
  HAL_StatusTypeDef status = HAL_OK;
 80033e4:	2000      	movs	r0, #0
  TIMx->SMCR = tmpsmcr;
 80033e6:	60a3      	str	r3, [r4, #8]
}
 80033e8:	e784      	b.n	80032f4 <HAL_TIM_ConfigClockSource+0x68>
 80033ea:	bf00      	nop

080033ec <HAL_TIM_OC_DelayElapsedCallback>:
 80033ec:	4770      	bx	lr
 80033ee:	bf00      	nop

080033f0 <HAL_TIM_IC_CaptureCallback>:
 80033f0:	4770      	bx	lr
 80033f2:	bf00      	nop

080033f4 <HAL_TIM_PWM_PulseFinishedCallback>:
 80033f4:	4770      	bx	lr
 80033f6:	bf00      	nop

080033f8 <HAL_TIM_TriggerCallback>:
 80033f8:	4770      	bx	lr
 80033fa:	bf00      	nop

080033fc <HAL_TIM_IRQHandler>:
  if (__HAL_TIM_GET_FLAG(htim, TIM_FLAG_CC1) != RESET)
 80033fc:	6803      	ldr	r3, [r0, #0]
 80033fe:	691a      	ldr	r2, [r3, #16]
 8003400:	0791      	lsls	r1, r2, #30
{
 8003402:	b510      	push	{r4, lr}
 8003404:	4604      	mov	r4, r0
  if (__HAL_TIM_GET_FLAG(htim, TIM_FLAG_CC1) != RESET)
 8003406:	d502      	bpl.n	800340e <HAL_TIM_IRQHandler+0x12>
    if (__HAL_TIM_GET_IT_SOURCE(htim, TIM_IT_CC1) != RESET)
 8003408:	68da      	ldr	r2, [r3, #12]
 800340a:	0792      	lsls	r2, r2, #30
 800340c:	d45f      	bmi.n	80034ce <HAL_TIM_IRQHandler+0xd2>
  if (__HAL_TIM_GET_FLAG(htim, TIM_FLAG_CC2) != RESET)
 800340e:	691a      	ldr	r2, [r3, #16]
 8003410:	0750      	lsls	r0, r2, #29
 8003412:	d502      	bpl.n	800341a <HAL_TIM_IRQHandler+0x1e>
    if (__HAL_TIM_GET_IT_SOURCE(htim, TIM_IT_CC2) != RESET)
 8003414:	68da      	ldr	r2, [r3, #12]
 8003416:	0751      	lsls	r1, r2, #29
 8003418:	d446      	bmi.n	80034a8 <HAL_TIM_IRQHandler+0xac>
  if (__HAL_TIM_GET_FLAG(htim, TIM_FLAG_CC3) != RESET)
 800341a:	691a      	ldr	r2, [r3, #16]
 800341c:	0712      	lsls	r2, r2, #28
 800341e:	d502      	bpl.n	8003426 <HAL_TIM_IRQHandler+0x2a>
    if (__HAL_TIM_GET_IT_SOURCE(htim, TIM_IT_CC3) != RESET)
 8003420:	68da      	ldr	r2, [r3, #12]
 8003422:	0710      	lsls	r0, r2, #28
 8003424:	d42e      	bmi.n	8003484 <HAL_TIM_IRQHandler+0x88>
  if (__HAL_TIM_GET_FLAG(htim, TIM_FLAG_CC4) != RESET)
 8003426:	691a      	ldr	r2, [r3, #16]
 8003428:	06d2      	lsls	r2, r2, #27
 800342a:	d502      	bpl.n	8003432 <HAL_TIM_IRQHandler+0x36>
    if (__HAL_TIM_GET_IT_SOURCE(htim, TIM_IT_CC4) != RESET)
 800342c:	68da      	ldr	r2, [r3, #12]
 800342e:	06d0      	lsls	r0, r2, #27
 8003430:	d418      	bmi.n	8003464 <HAL_TIM_IRQHandler+0x68>
  if (__HAL_TIM_GET_FLAG(htim, TIM_FLAG_UPDATE) != RESET)
 8003432:	691a      	ldr	r2, [r3, #16]
 8003434:	07d1      	lsls	r1, r2, #31
 8003436:	d502      	bpl.n	800343e <HAL_TIM_IRQHandler+0x42>
    if (__HAL_TIM_GET_IT_SOURCE(htim, TIM_IT_UPDATE) != RESET)
 8003438:	68da      	ldr	r2, [r3, #12]
 800343a:	07d2      	lsls	r2, r2, #31
 800343c:	d45d      	bmi.n	80034fa <HAL_TIM_IRQHandler+0xfe>
  if (__HAL_TIM_GET_FLAG(htim, TIM_FLAG_BREAK) != RESET)
 800343e:	691a      	ldr	r2, [r3, #16]
 8003440:	0610      	lsls	r0, r2, #24
 8003442:	d502      	bpl.n	800344a <HAL_TIM_IRQHandler+0x4e>
    if (__HAL_TIM_GET_IT_SOURCE(htim, TIM_IT_BREAK) != RESET)
 8003444:	68da      	ldr	r2, [r3, #12]
 8003446:	0611      	lsls	r1, r2, #24
 8003448:	d45f      	bmi.n	800350a <HAL_TIM_IRQHandler+0x10e>
  if (__HAL_TIM_GET_FLAG(htim, TIM_FLAG_TRIGGER) != RESET)
 800344a:	691a      	ldr	r2, [r3, #16]
 800344c:	0652      	lsls	r2, r2, #25
 800344e:	d502      	bpl.n	8003456 <HAL_TIM_IRQHandler+0x5a>
    if (__HAL_TIM_GET_IT_SOURCE(htim, TIM_IT_TRIGGER) != RESET)
 8003450:	68da      	ldr	r2, [r3, #12]
 8003452:	0650      	lsls	r0, r2, #25
 8003454:	d461      	bmi.n	800351a <HAL_TIM_IRQHandler+0x11e>
  if (__HAL_TIM_GET_FLAG(htim, TIM_FLAG_COM) != RESET)
 8003456:	691a      	ldr	r2, [r3, #16]
 8003458:	0691      	lsls	r1, r2, #26
 800345a:	d502      	bpl.n	8003462 <HAL_TIM_IRQHandler+0x66>
    if (__HAL_TIM_GET_IT_SOURCE(htim, TIM_IT_COM) != RESET)
 800345c:	68da      	ldr	r2, [r3, #12]
 800345e:	0692      	lsls	r2, r2, #26
 8003460:	d443      	bmi.n	80034ea <HAL_TIM_IRQHandler+0xee>
}
 8003462:	bd10      	pop	{r4, pc}
      __HAL_TIM_CLEAR_IT(htim, TIM_IT_CC4);
 8003464:	f06f 0110 	mvn.w	r1, #16
      htim->Channel = HAL_TIM_ACTIVE_CHANNEL_4;
 8003468:	2208      	movs	r2, #8
      __HAL_TIM_CLEAR_IT(htim, TIM_IT_CC4);
 800346a:	6119      	str	r1, [r3, #16]
      htim->Channel = HAL_TIM_ACTIVE_CHANNEL_4;
 800346c:	7722      	strb	r2, [r4, #28]
      if ((htim->Instance->CCMR2 & TIM_CCMR2_CC4S) != 0x00U)
 800346e:	69db      	ldr	r3, [r3, #28]
 8003470:	f413 7f40 	tst.w	r3, #768	; 0x300
        HAL_TIM_IC_CaptureCallback(htim);
 8003474:	4620      	mov	r0, r4
      if ((htim->Instance->CCMR2 & TIM_CCMR2_CC4S) != 0x00U)
 8003476:	d064      	beq.n	8003542 <HAL_TIM_IRQHandler+0x146>
        HAL_TIM_IC_CaptureCallback(htim);
 8003478:	f7ff ffba 	bl	80033f0 <HAL_TIM_IC_CaptureCallback>
      htim->Channel = HAL_TIM_ACTIVE_CHANNEL_CLEARED;
 800347c:	2200      	movs	r2, #0
  if (__HAL_TIM_GET_FLAG(htim, TIM_FLAG_UPDATE) != RESET)
 800347e:	6823      	ldr	r3, [r4, #0]
      htim->Channel = HAL_TIM_ACTIVE_CHANNEL_CLEARED;
 8003480:	7722      	strb	r2, [r4, #28]
 8003482:	e7d6      	b.n	8003432 <HAL_TIM_IRQHandler+0x36>
      __HAL_TIM_CLEAR_IT(htim, TIM_IT_CC3);
 8003484:	f06f 0108 	mvn.w	r1, #8
      htim->Channel = HAL_TIM_ACTIVE_CHANNEL_3;
 8003488:	2204      	movs	r2, #4
      __HAL_TIM_CLEAR_IT(htim, TIM_IT_CC3);
 800348a:	6119      	str	r1, [r3, #16]
      htim->Channel = HAL_TIM_ACTIVE_CHANNEL_3;
 800348c:	7722      	strb	r2, [r4, #28]
      if ((htim->Instance->CCMR2 & TIM_CCMR2_CC3S) != 0x00U)
 800348e:	69db      	ldr	r3, [r3, #28]
 8003490:	0799      	lsls	r1, r3, #30
        HAL_TIM_IC_CaptureCallback(htim);
 8003492:	4620      	mov	r0, r4
      if ((htim->Instance->CCMR2 & TIM_CCMR2_CC3S) != 0x00U)
 8003494:	d152      	bne.n	800353c <HAL_TIM_IRQHandler+0x140>
        HAL_TIM_OC_DelayElapsedCallback(htim);
 8003496:	f7ff ffa9 	bl	80033ec <HAL_TIM_OC_DelayElapsedCallback>
        HAL_TIM_PWM_PulseFinishedCallback(htim);
 800349a:	4620      	mov	r0, r4
 800349c:	f7ff ffaa 	bl	80033f4 <HAL_TIM_PWM_PulseFinishedCallback>
      htim->Channel = HAL_TIM_ACTIVE_CHANNEL_CLEARED;
 80034a0:	2200      	movs	r2, #0
  if (__HAL_TIM_GET_FLAG(htim, TIM_FLAG_CC4) != RESET)
 80034a2:	6823      	ldr	r3, [r4, #0]
      htim->Channel = HAL_TIM_ACTIVE_CHANNEL_CLEARED;
 80034a4:	7722      	strb	r2, [r4, #28]
 80034a6:	e7be      	b.n	8003426 <HAL_TIM_IRQHandler+0x2a>
      __HAL_TIM_CLEAR_IT(htim, TIM_IT_CC2);
 80034a8:	f06f 0104 	mvn.w	r1, #4
      htim->Channel = HAL_TIM_ACTIVE_CHANNEL_2;
 80034ac:	2202      	movs	r2, #2
      __HAL_TIM_CLEAR_IT(htim, TIM_IT_CC2);
 80034ae:	6119      	str	r1, [r3, #16]
      htim->Channel = HAL_TIM_ACTIVE_CHANNEL_2;
 80034b0:	7722      	strb	r2, [r4, #28]
      if ((htim->Instance->CCMR1 & TIM_CCMR1_CC2S) != 0x00U)
 80034b2:	699b      	ldr	r3, [r3, #24]
 80034b4:	f413 7f40 	tst.w	r3, #768	; 0x300
        HAL_TIM_IC_CaptureCallback(htim);
 80034b8:	4620      	mov	r0, r4
      if ((htim->Instance->CCMR1 & TIM_CCMR1_CC2S) != 0x00U)
 80034ba:	d13c      	bne.n	8003536 <HAL_TIM_IRQHandler+0x13a>
        HAL_TIM_OC_DelayElapsedCallback(htim);
 80034bc:	f7ff ff96 	bl	80033ec <HAL_TIM_OC_DelayElapsedCallback>
        HAL_TIM_PWM_PulseFinishedCallback(htim);
 80034c0:	4620      	mov	r0, r4
 80034c2:	f7ff ff97 	bl	80033f4 <HAL_TIM_PWM_PulseFinishedCallback>
      htim->Channel = HAL_TIM_ACTIVE_CHANNEL_CLEARED;
 80034c6:	2200      	movs	r2, #0
  if (__HAL_TIM_GET_FLAG(htim, TIM_FLAG_CC3) != RESET)
 80034c8:	6823      	ldr	r3, [r4, #0]
      htim->Channel = HAL_TIM_ACTIVE_CHANNEL_CLEARED;
 80034ca:	7722      	strb	r2, [r4, #28]
 80034cc:	e7a5      	b.n	800341a <HAL_TIM_IRQHandler+0x1e>
        __HAL_TIM_CLEAR_IT(htim, TIM_IT_CC1);
 80034ce:	f06f 0102 	mvn.w	r1, #2
        htim->Channel = HAL_TIM_ACTIVE_CHANNEL_1;
 80034d2:	2201      	movs	r2, #1
        __HAL_TIM_CLEAR_IT(htim, TIM_IT_CC1);
 80034d4:	6119      	str	r1, [r3, #16]
        htim->Channel = HAL_TIM_ACTIVE_CHANNEL_1;
 80034d6:	7702      	strb	r2, [r0, #28]
        if ((htim->Instance->CCMR1 & TIM_CCMR1_CC1S) != 0x00U)
 80034d8:	699b      	ldr	r3, [r3, #24]
 80034da:	079b      	lsls	r3, r3, #30
 80034dc:	d025      	beq.n	800352a <HAL_TIM_IRQHandler+0x12e>
          HAL_TIM_IC_CaptureCallback(htim);
 80034de:	f7ff ff87 	bl	80033f0 <HAL_TIM_IC_CaptureCallback>
        htim->Channel = HAL_TIM_ACTIVE_CHANNEL_CLEARED;
 80034e2:	2200      	movs	r2, #0
  if (__HAL_TIM_GET_FLAG(htim, TIM_FLAG_CC2) != RESET)
 80034e4:	6823      	ldr	r3, [r4, #0]
        htim->Channel = HAL_TIM_ACTIVE_CHANNEL_CLEARED;
 80034e6:	7722      	strb	r2, [r4, #28]
 80034e8:	e791      	b.n	800340e <HAL_TIM_IRQHandler+0x12>
      __HAL_TIM_CLEAR_IT(htim, TIM_FLAG_COM);
 80034ea:	f06f 0220 	mvn.w	r2, #32
      HAL_TIMEx_CommutCallback(htim);
 80034ee:	4620      	mov	r0, r4
      __HAL_TIM_CLEAR_IT(htim, TIM_FLAG_COM);
 80034f0:	611a      	str	r2, [r3, #16]
}
 80034f2:	e8bd 4010 	ldmia.w	sp!, {r4, lr}
      HAL_TIMEx_CommutCallback(htim);
 80034f6:	f000 b863 	b.w	80035c0 <HAL_TIMEx_CommutCallback>
      __HAL_TIM_CLEAR_IT(htim, TIM_IT_UPDATE);
 80034fa:	f06f 0201 	mvn.w	r2, #1
 80034fe:	611a      	str	r2, [r3, #16]
      HAL_TIM_PeriodElapsedCallback(htim);
 8003500:	4620      	mov	r0, r4
 8003502:	f7fe fa4f 	bl	80019a4 <HAL_TIM_PeriodElapsedCallback>
  if (__HAL_TIM_GET_FLAG(htim, TIM_FLAG_BREAK) != RESET)
 8003506:	6823      	ldr	r3, [r4, #0]
 8003508:	e799      	b.n	800343e <HAL_TIM_IRQHandler+0x42>
      __HAL_TIM_CLEAR_IT(htim, TIM_IT_BREAK);
 800350a:	f06f 0280 	mvn.w	r2, #128	; 0x80
 800350e:	611a      	str	r2, [r3, #16]
      HAL_TIMEx_BreakCallback(htim);
 8003510:	4620      	mov	r0, r4
 8003512:	f000 f857 	bl	80035c4 <HAL_TIMEx_BreakCallback>
  if (__HAL_TIM_GET_FLAG(htim, TIM_FLAG_TRIGGER) != RESET)
 8003516:	6823      	ldr	r3, [r4, #0]
 8003518:	e797      	b.n	800344a <HAL_TIM_IRQHandler+0x4e>
      __HAL_TIM_CLEAR_IT(htim, TIM_IT_TRIGGER);
 800351a:	f06f 0240 	mvn.w	r2, #64	; 0x40
 800351e:	611a      	str	r2, [r3, #16]
      HAL_TIM_TriggerCallback(htim);
 8003520:	4620      	mov	r0, r4
 8003522:	f7ff ff69 	bl	80033f8 <HAL_TIM_TriggerCallback>
  if (__HAL_TIM_GET_FLAG(htim, TIM_FLAG_COM) != RESET)
 8003526:	6823      	ldr	r3, [r4, #0]
 8003528:	e795      	b.n	8003456 <HAL_TIM_IRQHandler+0x5a>
          HAL_TIM_OC_DelayElapsedCallback(htim);
 800352a:	f7ff ff5f 	bl	80033ec <HAL_TIM_OC_DelayElapsedCallback>
          HAL_TIM_PWM_PulseFinishedCallback(htim);
 800352e:	4620      	mov	r0, r4
 8003530:	f7ff ff60 	bl	80033f4 <HAL_TIM_PWM_PulseFinishedCallback>
 8003534:	e7d5      	b.n	80034e2 <HAL_TIM_IRQHandler+0xe6>
        HAL_TIM_IC_CaptureCallback(htim);
 8003536:	f7ff ff5b 	bl	80033f0 <HAL_TIM_IC_CaptureCallback>
 800353a:	e7c4      	b.n	80034c6 <HAL_TIM_IRQHandler+0xca>
        HAL_TIM_IC_CaptureCallback(htim);
 800353c:	f7ff ff58 	bl	80033f0 <HAL_TIM_IC_CaptureCallback>
 8003540:	e7ae      	b.n	80034a0 <HAL_TIM_IRQHandler+0xa4>
        HAL_TIM_OC_DelayElapsedCallback(htim);
 8003542:	f7ff ff53 	bl	80033ec <HAL_TIM_OC_DelayElapsedCallback>
        HAL_TIM_PWM_PulseFinishedCallback(htim);
 8003546:	4620      	mov	r0, r4
 8003548:	f7ff ff54 	bl	80033f4 <HAL_TIM_PWM_PulseFinishedCallback>
 800354c:	e796      	b.n	800347c <HAL_TIM_IRQHandler+0x80>
 800354e:	bf00      	nop

08003550 <HAL_TIMEx_MasterConfigSynchronization>:
  assert_param(IS_TIM_MASTER_INSTANCE(htim->Instance));
  assert_param(IS_TIM_TRGO_SOURCE(sMasterConfig->MasterOutputTrigger));
  assert_param(IS_TIM_MSM_STATE(sMasterConfig->MasterSlaveMode));

  /* Check input state */
  __HAL_LOCK(htim);
 8003550:	f890 303c 	ldrb.w	r3, [r0, #60]	; 0x3c
 8003554:	2b01      	cmp	r3, #1
 8003556:	d02f      	beq.n	80035b8 <HAL_TIMEx_MasterConfigSynchronization+0x68>

  /* Change the handler state */
  htim->State = HAL_TIM_STATE_BUSY;

  /* Get the TIMx CR2 register value */
  tmpcr2 = htim->Instance->CR2;
 8003558:	6803      	ldr	r3, [r0, #0]
  htim->State = HAL_TIM_STATE_BUSY;
 800355a:	2202      	movs	r2, #2
{
 800355c:	b430      	push	{r4, r5}
  htim->State = HAL_TIM_STATE_BUSY;
 800355e:	f880 203d 	strb.w	r2, [r0, #61]	; 0x3d
  tmpcr2 = htim->Instance->CR2;
 8003562:	685a      	ldr	r2, [r3, #4]
  tmpsmcr = htim->Instance->SMCR;

  /* Reset the MMS Bits */
  tmpcr2 &= ~TIM_CR2_MMS;
  /* Select the TRGO source */
  tmpcr2 |=  sMasterConfig->MasterOutputTrigger;
 8003564:	680d      	ldr	r5, [r1, #0]
  tmpsmcr = htim->Instance->SMCR;
 8003566:	689c      	ldr	r4, [r3, #8]
  tmpcr2 &= ~TIM_CR2_MMS;
 8003568:	f022 0270 	bic.w	r2, r2, #112	; 0x70
  tmpcr2 |=  sMasterConfig->MasterOutputTrigger;
 800356c:	432a      	orrs	r2, r5

  /* Update TIMx CR2 */
  htim->Instance->CR2 = tmpcr2;
 800356e:	605a      	str	r2, [r3, #4]

  if (IS_TIM_SLAVE_INSTANCE(htim->Instance))
 8003570:	4a12      	ldr	r2, [pc, #72]	; (80035bc <HAL_TIMEx_MasterConfigSynchronization+0x6c>)
 8003572:	4293      	cmp	r3, r2
 8003574:	d012      	beq.n	800359c <HAL_TIMEx_MasterConfigSynchronization+0x4c>
 8003576:	f1b3 4f80 	cmp.w	r3, #1073741824	; 0x40000000
 800357a:	d00f      	beq.n	800359c <HAL_TIMEx_MasterConfigSynchronization+0x4c>
 800357c:	f5a2 427c 	sub.w	r2, r2, #64512	; 0xfc00
 8003580:	4293      	cmp	r3, r2
 8003582:	d00b      	beq.n	800359c <HAL_TIMEx_MasterConfigSynchronization+0x4c>
 8003584:	f502 6280 	add.w	r2, r2, #1024	; 0x400
 8003588:	4293      	cmp	r3, r2
 800358a:	d007      	beq.n	800359c <HAL_TIMEx_MasterConfigSynchronization+0x4c>
 800358c:	f502 6280 	add.w	r2, r2, #1024	; 0x400
 8003590:	4293      	cmp	r3, r2
 8003592:	d003      	beq.n	800359c <HAL_TIMEx_MasterConfigSynchronization+0x4c>
 8003594:	f502 329a 	add.w	r2, r2, #78848	; 0x13400
 8003598:	4293      	cmp	r3, r2
 800359a:	d104      	bne.n	80035a6 <HAL_TIMEx_MasterConfigSynchronization+0x56>
  {
    /* Reset the MSM Bit */
    tmpsmcr &= ~TIM_SMCR_MSM;
    /* Set master mode */
    tmpsmcr |= sMasterConfig->MasterSlaveMode;
 800359c:	684a      	ldr	r2, [r1, #4]
    tmpsmcr &= ~TIM_SMCR_MSM;
 800359e:	f024 0480 	bic.w	r4, r4, #128	; 0x80
    tmpsmcr |= sMasterConfig->MasterSlaveMode;
 80035a2:	4314      	orrs	r4, r2

    /* Update TIMx SMCR */
    htim->Instance->SMCR = tmpsmcr;
 80035a4:	609c      	str	r4, [r3, #8]
  }

  /* Change the htim state */
  htim->State = HAL_TIM_STATE_READY;

  __HAL_UNLOCK(htim);
 80035a6:	2300      	movs	r3, #0
  htim->State = HAL_TIM_STATE_READY;
 80035a8:	2201      	movs	r2, #1
 80035aa:	f880 203d 	strb.w	r2, [r0, #61]	; 0x3d
  __HAL_UNLOCK(htim);
 80035ae:	f880 303c 	strb.w	r3, [r0, #60]	; 0x3c

  return HAL_OK;
}
 80035b2:	bc30      	pop	{r4, r5}
  return HAL_OK;
 80035b4:	4618      	mov	r0, r3
}
 80035b6:	4770      	bx	lr
  __HAL_LOCK(htim);
 80035b8:	2002      	movs	r0, #2
}
 80035ba:	4770      	bx	lr
 80035bc:	40010000 	.word	0x40010000

080035c0 <HAL_TIMEx_CommutCallback>:
 80035c0:	4770      	bx	lr
 80035c2:	bf00      	nop

080035c4 <HAL_TIMEx_BreakCallback>:
 80035c4:	4770      	bx	lr
 80035c6:	bf00      	nop

080035c8 <abs>:
 80035c8:	2800      	cmp	r0, #0
 80035ca:	bfb8      	it	lt
 80035cc:	4240      	neglt	r0, r0
 80035ce:	4770      	bx	lr

080035d0 <__libc_init_array>:
 80035d0:	b570      	push	{r4, r5, r6, lr}
 80035d2:	4d0d      	ldr	r5, [pc, #52]	; (8003608 <__libc_init_array+0x38>)
 80035d4:	4c0d      	ldr	r4, [pc, #52]	; (800360c <__libc_init_array+0x3c>)
 80035d6:	1b64      	subs	r4, r4, r5
 80035d8:	10a4      	asrs	r4, r4, #2
 80035da:	2600      	movs	r6, #0
 80035dc:	42a6      	cmp	r6, r4
 80035de:	d109      	bne.n	80035f4 <__libc_init_array+0x24>
 80035e0:	4d0b      	ldr	r5, [pc, #44]	; (8003610 <__libc_init_array+0x40>)
 80035e2:	4c0c      	ldr	r4, [pc, #48]	; (8003614 <__libc_init_array+0x44>)
 80035e4:	f000 f818 	bl	8003618 <_init>
 80035e8:	1b64      	subs	r4, r4, r5
 80035ea:	10a4      	asrs	r4, r4, #2
 80035ec:	2600      	movs	r6, #0
 80035ee:	42a6      	cmp	r6, r4
 80035f0:	d105      	bne.n	80035fe <__libc_init_array+0x2e>
 80035f2:	bd70      	pop	{r4, r5, r6, pc}
 80035f4:	f855 3b04 	ldr.w	r3, [r5], #4
 80035f8:	4798      	blx	r3
 80035fa:	3601      	adds	r6, #1
 80035fc:	e7ee      	b.n	80035dc <__libc_init_array+0xc>
 80035fe:	f855 3b04 	ldr.w	r3, [r5], #4
 8003602:	4798      	blx	r3
 8003604:	3601      	adds	r6, #1
 8003606:	e7f2      	b.n	80035ee <__libc_init_array+0x1e>
 8003608:	08003664 	.word	0x08003664
 800360c:	08003664 	.word	0x08003664
 8003610:	08003664 	.word	0x08003664
 8003614:	08003668 	.word	0x08003668

08003618 <_init>:
 8003618:	b5f8      	push	{r3, r4, r5, r6, r7, lr}
 800361a:	bf00      	nop
 800361c:	bcf8      	pop	{r3, r4, r5, r6, r7}
 800361e:	bc08      	pop	{r3}
 8003620:	469e      	mov	lr, r3
 8003622:	4770      	bx	lr

08003624 <_fini>:
 8003624:	b5f8      	push	{r3, r4, r5, r6, r7, lr}
 8003626:	bf00      	nop
 8003628:	bcf8      	pop	{r3, r4, r5, r6, r7}
 800362a:	bc08      	pop	{r3}
 800362c:	469e      	mov	lr, r3
 800362e:	4770      	bx	lr
